TN:
SF:/home/shiv/demo/gtest/bowlinggame/app/include/BowlingGame.hpp
FN:20,_ZN11BowlingGameC2Ei
FN:21,_ZN11BowlingGameD2Ev
FN:23,_ZN11BowlingGame8shutDownEv
FN:32,_ZN11BowlingGame8getframeEv
FNDA:291,_ZN11BowlingGame8getframeEv
FNDA:30,_ZN11BowlingGameC2Ei
FNDA:30,_ZN11BowlingGameD2Ev
FNDA:30,_ZN11BowlingGame8shutDownEv
FNF:4
FNH:4
DA:20,30
DA:21,30
DA:23,30
DA:25,303
DA:27,273
DA:29,30
DA:30,30
DA:32,291
DA:34,291
LF:9
LH:9
end_of_record
TN:
SF:/home/shiv/demo/gtest/bowlinggame/app/include/FrameType.hpp
FN:12,_ZN9FrameTypeC2Ev
FN:17,_ZN9FrameType13setFrameScoreEi
FN:21,_ZN9FrameTypeD2Ev
FN:21,_ZN9FrameTypeD0Ev
FNDA:0,_ZN9FrameTypeD0Ev
FNDA:273,_ZN9FrameTypeC2Ev
FNDA:273,_ZN9FrameTypeD2Ev
FNDA:140,_ZN9FrameType13setFrameScoreEi
FNF:4
FNH:3
DA:12,273
DA:17,140
DA:19,140
DA:20,140
DA:21,273
LF:5
LH:5
end_of_record
TN:
SF:/home/shiv/demo/gtest/bowlinggame/app/include/NormalFrame.hpp
FN:14,_ZN11NormalFrameC2Eii
FN:18,_ZN11NormalFrame12setFrameTrieEv
FN:22,_ZN11NormalFrame14getNormalTriesEv
FN:26,_ZN11NormalFrame13getTenthTriesEv
FNDA:1,_ZN11NormalFrame13getTenthTriesEv
FNDA:149,_ZN11NormalFrame14getNormalTriesEv
FNDA:245,_ZN11NormalFrame12setFrameTrieEv
FNDA:245,_ZN11NormalFrameC2Eii
FNF:4
FNH:4
DA:14,245
DA:16,245
DA:17,245
DA:18,245
DA:20,245
DA:21,245
DA:22,149
DA:24,149
DA:26,1
DA:28,1
DA:29,1
LF:11
LH:11
end_of_record
TN:
SF:/home/shiv/demo/gtest/bowlinggame/app/include/TenthFrame.hpp
FN:15,_ZN10TenthFrameC2Eiii
FN:19,_ZN10TenthFrame12setFrameTrieEv
FN:23,_ZN10TenthFrame14getNormalTriesEv
FN:28,_ZN10TenthFrame13getTenthTriesEv
FNDA:22,_ZN10TenthFrame13getTenthTriesEv
FNDA:1,_ZN10TenthFrame14getNormalTriesEv
FNDA:28,_ZN10TenthFrame12setFrameTrieEv
FNDA:28,_ZN10TenthFrameC2Eiii
FNF:4
FNH:4
DA:15,28
DA:17,28
DA:18,28
DA:19,28
DA:21,28
DA:22,28
DA:23,1
DA:25,1
DA:26,1
DA:28,22
DA:30,22
LF:11
LH:11
end_of_record
TN:
SF:/home/shiv/demo/gtest/bowlinggame/app/include/utility.hpp
FN:7,_Z17getValidatedInputRKNSt7__cxx1112basic_stringIcSt11char_traitsIcESaIcEEEii
FNDA:222,_Z17getValidatedInputRKNSt7__cxx1112basic_stringIcSt11char_traitsIcESaIcEEEii
FNF:1
FNH:1
DA:7,224
DA:12,224
DA:13,224
DA:14,224
DA:16,2
DA:24,222
LF:6
LH:6
end_of_record
TN:
SF:/home/shiv/demo/gtest/bowlinggame/app/src/BowlingGame.cpp
FN:9,_ZN11BowlingGame8getInputERS_
FN:70,_ZN11BowlingGame19CalculateTotalScoreEv
FNDA:14,_ZN11BowlingGame19CalculateTotalScoreEv
FNDA:12,_ZN11BowlingGame8getInputERS_
FNF:2
FNH:2
DA:9,12
DA:13,111
DA:16,100
DA:17,100
DA:20,100
DA:22,1
DA:26,99
DA:29,100
DA:31,1
DA:34,99
DA:38,11
DA:39,11
DA:40,11
DA:42,11
DA:44,1
DA:48,10
DA:51,11
DA:53,1
DA:56,10
DA:58,2
DA:61,10
DA:63,4
DA:65,2
DA:66,2
DA:68,12
DA:70,14
DA:72,154
DA:74,140
DA:76,126
DA:77,126
DA:79,17
DA:80,17
DA:82,10
DA:83,10
DA:85,8
DA:86,8
DA:90,2
DA:91,2
DA:94,7
DA:96,3
DA:97,3
DA:99,2
DA:100,2
DA:104,1
DA:105,1
DA:110,4
DA:111,4
DA:113,2
DA:114,2
DA:118,2
DA:119,2
DA:123,109
DA:125,2
DA:126,2
DA:128,1
DA:129,1
DA:133,1
DA:134,1
DA:139,107
DA:140,107
DA:141,107
DA:146,14
DA:147,14
DA:149,3
DA:150,3
DA:152,11
DA:154,1
DA:155,1
DA:159,10
DA:160,10
DA:163,140
DA:165,14
LF:72
LH:72
end_of_record
TN:
SF:/home/shiv/demo/gtest/bowlinggame/app/src/FrameFactory.cpp
FN:9,_ZN12FrameFactory11createFrameER11BowlingGameRKNSt7__cxx1112basic_stringIcSt11char_traitsIcESaIcEEEiii
FNDA:274,_ZN12FrameFactory11createFrameER11BowlingGameRKNSt7__cxx1112basic_stringIcSt11char_traitsIcESaIcEEEiii
FNF:1
FNH:1
DA:9,274
DA:11,274
DA:13,245
DA:15,29
DA:17,28
DA:21,1
DA:23,273
LF:7
LH:7
end_of_record
TN:
SF:/home/shiv/demo/gtest/bowlinggame/unit_testing/BowlingGameTest.cpp
FN:11,_ZN15BowlingGameTestC2Ev
FN:16,_ZN15BowlingGameTestD0Ev
FN:16,_ZN15BowlingGameTestD2Ev
FN:21,_ZN15BowlingGameTest5SetUpEv
FN:26,_ZN15BowlingGameTest8TearDownEv
FN:55,_ZN33BowlingGameTest_Testgetframe_TestC2Ev
FN:55,_ZN33BowlingGameTest_Testgetframe_TestD2Ev
FN:55,_ZN33BowlingGameTest_Testgetframe_TestD0Ev
FN:55,_ZN33BowlingGameTest_Testgetframe_Test8TestBodyEv
FN:65,_ZN45BowlingGameTest_TestCalculateTotalScore1_TestC2Ev
FN:65,_ZN45BowlingGameTest_TestCalculateTotalScore1_TestD0Ev
FN:65,_ZN45BowlingGameTest_TestCalculateTotalScore1_TestD2Ev
FN:65,_ZN45BowlingGameTest_TestCalculateTotalScore1_Test8TestBodyEv
FN:79,_ZN45BowlingGameTest_TestCalculateTotalScore2_TestD2Ev
FN:79,_ZN45BowlingGameTest_TestCalculateTotalScore2_TestC2Ev
FN:79,_ZN45BowlingGameTest_TestCalculateTotalScore2_Test8TestBodyEv
FN:79,_ZN45BowlingGameTest_TestCalculateTotalScore2_TestD0Ev
FN:93,_ZN45BowlingGameTest_TestCalculateTotalScore3_TestD0Ev
FN:93,_ZN45BowlingGameTest_TestCalculateTotalScore3_TestD2Ev
FN:93,_ZN45BowlingGameTest_TestCalculateTotalScore3_TestC2Ev
FN:93,_ZN45BowlingGameTest_TestCalculateTotalScore3_Test8TestBodyEv
FN:106,_ZN45BowlingGameTest_TestCalculateTotalScore4_TestC2Ev
FN:106,_ZN45BowlingGameTest_TestCalculateTotalScore4_Test8TestBodyEv
FN:106,_ZN45BowlingGameTest_TestCalculateTotalScore4_TestD2Ev
FN:106,_ZN45BowlingGameTest_TestCalculateTotalScore4_TestD0Ev
FN:119,_ZN45BowlingGameTest_TestCalculateTotalScore5_TestD2Ev
FN:119,_ZN45BowlingGameTest_TestCalculateTotalScore5_TestD0Ev
FN:119,_ZN45BowlingGameTest_TestCalculateTotalScore5_Test8TestBodyEv
FN:119,_ZN45BowlingGameTest_TestCalculateTotalScore5_TestC2Ev
FN:131,_ZN45BowlingGameTest_TestCalculateTotalScore6_Test8TestBodyEv
FN:131,_ZN45BowlingGameTest_TestCalculateTotalScore6_TestD0Ev
FN:131,_ZN45BowlingGameTest_TestCalculateTotalScore6_TestD2Ev
FN:131,_ZN45BowlingGameTest_TestCalculateTotalScore6_TestC2Ev
FN:143,_ZN45BowlingGameTest_TestCalculateTotalScore7_Test8TestBodyEv
FN:143,_ZN45BowlingGameTest_TestCalculateTotalScore7_TestD0Ev
FN:143,_ZN45BowlingGameTest_TestCalculateTotalScore7_TestD2Ev
FN:143,_ZN45BowlingGameTest_TestCalculateTotalScore7_TestC2Ev
FN:155,_ZN45BowlingGameTest_TestCalculateTotalScore8_TestD2Ev
FN:155,_ZN45BowlingGameTest_TestCalculateTotalScore8_TestD0Ev
FN:155,_ZN45BowlingGameTest_TestCalculateTotalScore8_TestC2Ev
FN:155,_ZN45BowlingGameTest_TestCalculateTotalScore8_Test8TestBodyEv
FN:167,_ZN45BowlingGameTest_TestCalculateTotalScore9_Test8TestBodyEv
FN:167,_ZN45BowlingGameTest_TestCalculateTotalScore9_TestD2Ev
FN:167,_ZN45BowlingGameTest_TestCalculateTotalScore9_TestC2Ev
FN:167,_ZN45BowlingGameTest_TestCalculateTotalScore9_TestD0Ev
FN:179,_ZN46BowlingGameTest_TestCalculateTotalScore10_Test8TestBodyEv
FN:179,_ZN46BowlingGameTest_TestCalculateTotalScore10_TestD2Ev
FN:179,_ZN46BowlingGameTest_TestCalculateTotalScore10_TestD0Ev
FN:179,_ZN46BowlingGameTest_TestCalculateTotalScore10_TestC2Ev
FN:190,_ZN46BowlingGameTest_TestCalculateTotalScore11_TestD0Ev
FN:190,_ZN46BowlingGameTest_TestCalculateTotalScore11_Test8TestBodyEv
FN:190,_ZN46BowlingGameTest_TestCalculateTotalScore11_TestC2Ev
FN:190,_ZN46BowlingGameTest_TestCalculateTotalScore11_TestD2Ev
FN:201,_ZN46BowlingGameTest_TestCalculateTotalScore12_TestC2Ev
FN:201,_ZN46BowlingGameTest_TestCalculateTotalScore12_TestD2Ev
FN:201,_ZN46BowlingGameTest_TestCalculateTotalScore12_Test8TestBodyEv
FN:201,_ZN46BowlingGameTest_TestCalculateTotalScore12_TestD0Ev
FN:213,_ZN54BowlingGameTest_TestCalculateTotalScoreAllFrame10_TestC2Ev
FN:213,_ZN54BowlingGameTest_TestCalculateTotalScoreAllFrame10_TestD2Ev
FN:213,_ZN54BowlingGameTest_TestCalculateTotalScoreAllFrame10_Test8TestBodyEv
FN:213,_ZN54BowlingGameTest_TestCalculateTotalScoreAllFrame10_TestD0Ev
FN:224,_ZN53BowlingGameTest_TestCalculateTotalScoreAllFrame0_TestD0Ev
FN:224,_ZN53BowlingGameTest_TestCalculateTotalScoreAllFrame0_TestC2Ev
FN:224,_ZN53BowlingGameTest_TestCalculateTotalScoreAllFrame0_Test8TestBodyEv
FN:224,_ZN53BowlingGameTest_TestCalculateTotalScoreAllFrame0_TestD2Ev
FN:234,_ZN34BowlingGameTest_TestgetInput1_TestD2Ev
FN:234,_ZN34BowlingGameTest_TestgetInput1_TestD0Ev
FN:234,_ZN34BowlingGameTest_TestgetInput1_TestC2Ev
FN:234,_ZN34BowlingGameTest_TestgetInput1_Test8TestBodyEv
FN:245,_ZN34BowlingGameTest_TestgetInput2_TestD2Ev
FN:245,_ZN34BowlingGameTest_TestgetInput2_TestD0Ev
FN:245,_ZN34BowlingGameTest_TestgetInput2_TestC2Ev
FN:245,_ZN34BowlingGameTest_TestgetInput2_Test8TestBodyEv
FN:256,_ZN34BowlingGameTest_TestgetInput3_TestC2Ev
FN:256,_ZN34BowlingGameTest_TestgetInput3_Test8TestBodyEv
FN:256,_ZN34BowlingGameTest_TestgetInput3_TestD0Ev
FN:256,_ZN34BowlingGameTest_TestgetInput3_TestD2Ev
FN:267,_ZN34BowlingGameTest_TestgetInput4_Test8TestBodyEv
FN:267,_ZN34BowlingGameTest_TestgetInput4_TestD0Ev
FN:267,_ZN34BowlingGameTest_TestgetInput4_TestD2Ev
FN:267,_ZN34BowlingGameTest_TestgetInput4_TestC2Ev
FN:278,_ZN34BowlingGameTest_TestgetInput5_TestD2Ev
FN:278,_ZN34BowlingGameTest_TestgetInput5_TestC2Ev
FN:278,_ZN34BowlingGameTest_TestgetInput5_TestD0Ev
FN:278,_ZN34BowlingGameTest_TestgetInput5_Test8TestBodyEv
FN:289,_ZN34BowlingGameTest_TestgetInput6_TestC2Ev
FN:289,_ZN34BowlingGameTest_TestgetInput6_TestD0Ev
FN:289,_ZN34BowlingGameTest_TestgetInput6_Test8TestBodyEv
FN:289,_ZN34BowlingGameTest_TestgetInput6_TestD2Ev
FN:300,_ZN34BowlingGameTest_TestgetInput7_TestD2Ev
FN:300,_ZN34BowlingGameTest_TestgetInput7_TestC2Ev
FN:300,_ZN34BowlingGameTest_TestgetInput7_TestD0Ev
FN:300,_ZN34BowlingGameTest_TestgetInput7_Test8TestBodyEv
FN:311,_ZN34BowlingGameTest_TestgetInput8_Test8TestBodyEv
FN:311,_ZN34BowlingGameTest_TestgetInput8_TestD2Ev
FN:311,_ZN34BowlingGameTest_TestgetInput8_TestD0Ev
FN:311,_ZN34BowlingGameTest_TestgetInput8_TestC2Ev
FN:322,_ZN34BowlingGameTest_TestgetInput9_TestD0Ev
FN:322,_ZN34BowlingGameTest_TestgetInput9_TestC2Ev
FN:322,_ZN34BowlingGameTest_TestgetInput9_TestD2Ev
FN:322,_ZN34BowlingGameTest_TestgetInput9_Test8TestBodyEv
FN:333,_ZN35BowlingGameTest_TestgetInput10_TestD0Ev
FN:333,_ZN35BowlingGameTest_TestgetInput10_TestC2Ev
FN:333,_ZN35BowlingGameTest_TestgetInput10_TestD2Ev
FN:333,_ZN35BowlingGameTest_TestgetInput10_Test8TestBodyEv
FNDA:1,_ZN34BowlingGameTest_TestgetInput2_TestD0Ev
FNDA:1,_ZN46BowlingGameTest_TestCalculateTotalScore10_TestD0Ev
FNDA:1,_ZN45BowlingGameTest_TestCalculateTotalScore9_Test8TestBodyEv
FNDA:1,_ZN33BowlingGameTest_Testgetframe_Test8TestBodyEv
FNDA:1,_ZN34BowlingGameTest_TestgetInput8_TestD0Ev
FNDA:1,_ZN35BowlingGameTest_TestgetInput10_TestC2Ev
FNDA:1,_ZN54BowlingGameTest_TestCalculateTotalScoreAllFrame10_TestD2Ev
FNDA:1,_ZN34BowlingGameTest_TestgetInput1_TestD0Ev
FNDA:1,_ZN34BowlingGameTest_TestgetInput8_TestD2Ev
FNDA:25,_ZN15BowlingGameTest8TearDownEv
FNDA:1,_ZN34BowlingGameTest_TestgetInput6_TestC2Ev
FNDA:1,_ZN34BowlingGameTest_TestgetInput9_TestD0Ev
FNDA:1,_ZN45BowlingGameTest_TestCalculateTotalScore5_Test8TestBodyEv
FNDA:1,_ZN33BowlingGameTest_Testgetframe_TestD0Ev
FNDA:25,_ZN15BowlingGameTestD2Ev
FNDA:1,_ZN34BowlingGameTest_TestgetInput4_TestD2Ev
FNDA:1,_ZN45BowlingGameTest_TestCalculateTotalScore6_TestD2Ev
FNDA:1,_ZN45BowlingGameTest_TestCalculateTotalScore3_TestC2Ev
FNDA:1,_ZN34BowlingGameTest_TestgetInput4_TestD0Ev
FNDA:1,_ZN45BowlingGameTest_TestCalculateTotalScore6_TestD0Ev
FNDA:1,_ZN53BowlingGameTest_TestCalculateTotalScoreAllFrame0_TestD0Ev
FNDA:25,_ZN15BowlingGameTestC2Ev
FNDA:1,_ZN34BowlingGameTest_TestgetInput3_Test8TestBodyEv
FNDA:1,_ZN34BowlingGameTest_TestgetInput9_TestC2Ev
FNDA:1,_ZN45BowlingGameTest_TestCalculateTotalScore2_TestC2Ev
FNDA:1,_ZN46BowlingGameTest_TestCalculateTotalScore11_Test8TestBodyEv
FNDA:1,_ZN54BowlingGameTest_TestCalculateTotalScoreAllFrame10_Test8TestBodyEv
FNDA:1,_ZN34BowlingGameTest_TestgetInput5_TestD2Ev
FNDA:1,_ZN34BowlingGameTest_TestgetInput3_TestC2Ev
FNDA:1,_ZN46BowlingGameTest_TestCalculateTotalScore12_TestC2Ev
FNDA:1,_ZN33BowlingGameTest_Testgetframe_TestC2Ev
FNDA:1,_ZN45BowlingGameTest_TestCalculateTotalScore3_TestD0Ev
FNDA:0,_ZN15BowlingGameTestD0Ev
FNDA:1,_ZN46BowlingGameTest_TestCalculateTotalScore10_TestD2Ev
FNDA:1,_ZN45BowlingGameTest_TestCalculateTotalScore2_TestD2Ev
FNDA:1,_ZN46BowlingGameTest_TestCalculateTotalScore11_TestD0Ev
FNDA:1,_ZN35BowlingGameTest_TestgetInput10_TestD0Ev
FNDA:1,_ZN45BowlingGameTest_TestCalculateTotalScore8_TestD2Ev
FNDA:1,_ZN46BowlingGameTest_TestCalculateTotalScore10_Test8TestBodyEv
FNDA:1,_ZN45BowlingGameTest_TestCalculateTotalScore7_Test8TestBodyEv
FNDA:1,_ZN45BowlingGameTest_TestCalculateTotalScore6_Test8TestBodyEv
FNDA:1,_ZN33BowlingGameTest_Testgetframe_TestD2Ev
FNDA:1,_ZN34BowlingGameTest_TestgetInput4_Test8TestBodyEv
FNDA:1,_ZN34BowlingGameTest_TestgetInput1_TestD2Ev
FNDA:1,_ZN45BowlingGameTest_TestCalculateTotalScore3_TestD2Ev
FNDA:1,_ZN34BowlingGameTest_TestgetInput7_TestC2Ev
FNDA:1,_ZN45BowlingGameTest_TestCalculateTotalScore4_TestC2Ev
FNDA:1,_ZN45BowlingGameTest_TestCalculateTotalScore1_TestC2Ev
FNDA:1,_ZN34BowlingGameTest_TestgetInput7_TestD2Ev
FNDA:1,_ZN45BowlingGameTest_TestCalculateTotalScore1_TestD0Ev
FNDA:1,_ZN34BowlingGameTest_TestgetInput8_Test8TestBodyEv
FNDA:1,_ZN34BowlingGameTest_TestgetInput2_TestD2Ev
FNDA:1,_ZN54BowlingGameTest_TestCalculateTotalScoreAllFrame10_TestC2Ev
FNDA:1,_ZN45BowlingGameTest_TestCalculateTotalScore5_TestD0Ev
FNDA:1,_ZN45BowlingGameTest_TestCalculateTotalScore5_TestD2Ev
FNDA:1,_ZN34BowlingGameTest_TestgetInput4_TestC2Ev
FNDA:1,_ZN35BowlingGameTest_TestgetInput10_Test8TestBodyEv
FNDA:1,_ZN45BowlingGameTest_TestCalculateTotalScore1_Test8TestBodyEv
FNDA:1,_ZN34BowlingGameTest_TestgetInput7_TestD0Ev
FNDA:1,_ZN45BowlingGameTest_TestCalculateTotalScore9_TestC2Ev
FNDA:1,_ZN45BowlingGameTest_TestCalculateTotalScore7_TestC2Ev
FNDA:1,_ZN45BowlingGameTest_TestCalculateTotalScore3_Test8TestBodyEv
FNDA:1,_ZN45BowlingGameTest_TestCalculateTotalScore8_TestC2Ev
FNDA:1,_ZN45BowlingGameTest_TestCalculateTotalScore9_TestD0Ev
FNDA:1,_ZN46BowlingGameTest_TestCalculateTotalScore10_TestC2Ev
FNDA:1,_ZN45BowlingGameTest_TestCalculateTotalScore2_Test8TestBodyEv
FNDA:1,_ZN34BowlingGameTest_TestgetInput6_TestD2Ev
FNDA:1,_ZN45BowlingGameTest_TestCalculateTotalScore5_TestC2Ev
FNDA:1,_ZN45BowlingGameTest_TestCalculateTotalScore2_TestD0Ev
FNDA:1,_ZN46BowlingGameTest_TestCalculateTotalScore11_TestD2Ev
FNDA:1,_ZN53BowlingGameTest_TestCalculateTotalScoreAllFrame0_TestD2Ev
FNDA:1,_ZN34BowlingGameTest_TestgetInput5_TestD0Ev
FNDA:1,_ZN45BowlingGameTest_TestCalculateTotalScore4_TestD2Ev
FNDA:1,_ZN34BowlingGameTest_TestgetInput7_Test8TestBodyEv
FNDA:1,_ZN34BowlingGameTest_TestgetInput1_Test8TestBodyEv
FNDA:1,_ZN34BowlingGameTest_TestgetInput3_TestD2Ev
FNDA:1,_ZN45BowlingGameTest_TestCalculateTotalScore8_Test8TestBodyEv
FNDA:1,_ZN45BowlingGameTest_TestCalculateTotalScore4_TestD0Ev
FNDA:1,_ZN34BowlingGameTest_TestgetInput5_Test8TestBodyEv
FNDA:1,_ZN45BowlingGameTest_TestCalculateTotalScore7_TestD0Ev
FNDA:1,_ZN46BowlingGameTest_TestCalculateTotalScore12_TestD2Ev
FNDA:1,_ZN45BowlingGameTest_TestCalculateTotalScore9_TestD2Ev
FNDA:1,_ZN34BowlingGameTest_TestgetInput8_TestC2Ev
FNDA:1,_ZN34BowlingGameTest_TestgetInput2_Test8TestBodyEv
FNDA:1,_ZN34BowlingGameTest_TestgetInput3_TestD0Ev
FNDA:1,_ZN34BowlingGameTest_TestgetInput9_TestD2Ev
FNDA:1,_ZN45BowlingGameTest_TestCalculateTotalScore1_TestD2Ev
FNDA:1,_ZN54BowlingGameTest_TestCalculateTotalScoreAllFrame10_TestD0Ev
FNDA:1,_ZN34BowlingGameTest_TestgetInput9_Test8TestBodyEv
FNDA:1,_ZN45BowlingGameTest_TestCalculateTotalScore4_Test8TestBodyEv
FNDA:1,_ZN34BowlingGameTest_TestgetInput2_TestC2Ev
FNDA:1,_ZN35BowlingGameTest_TestgetInput10_TestD2Ev
FNDA:1,_ZN45BowlingGameTest_TestCalculateTotalScore8_TestD0Ev
FNDA:1,_ZN53BowlingGameTest_TestCalculateTotalScoreAllFrame0_Test8TestBodyEv
FNDA:1,_ZN34BowlingGameTest_TestgetInput5_TestC2Ev
FNDA:1,_ZN53BowlingGameTest_TestCalculateTotalScoreAllFrame0_TestC2Ev
FNDA:1,_ZN46BowlingGameTest_TestCalculateTotalScore11_TestC2Ev
FNDA:1,_ZN46BowlingGameTest_TestCalculateTotalScore12_Test8TestBodyEv
FNDA:1,_ZN46BowlingGameTest_TestCalculateTotalScore12_TestD0Ev
FNDA:1,_ZN34BowlingGameTest_TestgetInput1_TestC2Ev
FNDA:1,_ZN45BowlingGameTest_TestCalculateTotalScore6_TestC2Ev
FNDA:25,_ZN15BowlingGameTest5SetUpEv
FNDA:1,_ZN34BowlingGameTest_TestgetInput6_TestD0Ev
FNDA:1,_ZN45BowlingGameTest_TestCalculateTotalScore7_TestD2Ev
FNDA:1,_ZN34BowlingGameTest_TestgetInput6_Test8TestBodyEv
FNF:105
FNH:104
DA:11,25
DA:13,25
DA:14,25
DA:16,25
DA:17,25
DA:18,25
DA:19,25
DA:21,25
DA:23,25
DA:24,25
DA:26,25
DA:28,25
DA:29,25
DA:30,25
DA:55,4
DA:57,1
DA:58,1
DA:59,1
DA:65,4
DA:67,1
DA:68,1
DA:70,8
DA:72,7
DA:74,1
DA:75,1
DA:76,1
DA:79,4
DA:81,1
DA:83,9
DA:85,8
DA:87,1
DA:89,1
DA:90,1
DA:93,4
DA:95,8
DA:97,7
DA:99,1
DA:100,1
DA:101,1
DA:102,1
DA:103,1
DA:106,4
DA:108,8
DA:110,7
DA:112,1
DA:113,1
DA:114,1
DA:115,1
DA:116,1
DA:119,4
DA:121,9
DA:123,8
DA:125,1
DA:126,1
DA:127,1
DA:128,1
DA:131,4
DA:133,9
DA:135,8
DA:137,1
DA:138,1
DA:139,1
DA:140,1
DA:143,4
DA:145,1
DA:146,9
DA:148,8
DA:150,1
DA:151,1
DA:152,1
DA:155,4
DA:157,9
DA:159,8
DA:161,1
DA:162,1
DA:163,1
DA:164,1
DA:167,4
DA:169,1
DA:170,9
DA:172,8
DA:174,1
DA:175,1
DA:176,1
DA:179,4
DA:181,10
DA:183,9
DA:185,1
DA:186,1
DA:187,1
DA:190,4
DA:192,10
DA:194,9
DA:196,1
DA:197,1
DA:198,1
DA:201,4
DA:203,10
DA:205,9
DA:207,1
DA:208,1
DA:209,1
DA:213,4
DA:215,10
DA:217,9
DA:219,1
DA:220,1
DA:221,1
DA:224,4
DA:226,10
DA:228,9
DA:230,1
DA:231,1
DA:232,1
DA:234,4
DA:236,1
DA:237,2
DA:238,2
DA:239,1
DA:240,1
DA:241,1
DA:242,1
DA:243,1
DA:245,4
DA:247,1
DA:248,2
DA:249,2
DA:250,1
DA:251,1
DA:252,1
DA:253,1
DA:254,1
DA:256,4
DA:258,1
DA:259,2
DA:260,2
DA:261,1
DA:262,1
DA:263,1
DA:264,1
DA:265,1
DA:267,4
DA:269,1
DA:270,2
DA:271,2
DA:272,1
DA:273,1
DA:274,1
DA:275,1
DA:276,1
DA:278,4
DA:280,1
DA:281,2
DA:282,2
DA:283,1
DA:284,1
DA:285,1
DA:286,1
DA:287,1
DA:289,4
DA:291,1
DA:292,2
DA:293,2
DA:294,1
DA:295,1
DA:296,1
DA:297,1
DA:298,1
DA:300,4
DA:302,1
DA:303,2
DA:304,2
DA:305,1
DA:306,1
DA:307,1
DA:308,1
DA:309,1
DA:311,4
DA:313,1
DA:314,2
DA:315,2
DA:316,1
DA:317,1
DA:318,1
DA:319,1
DA:320,1
DA:322,4
DA:324,1
DA:325,2
DA:326,2
DA:327,1
DA:328,1
DA:329,1
DA:330,1
DA:331,1
DA:333,4
DA:335,1
DA:336,2
DA:337,2
DA:338,1
DA:339,1
DA:340,1
DA:341,1
DA:342,1
LF:204
LH:204
end_of_record
TN:
SF:/home/shiv/demo/gtest/bowlinggame/unit_testing/FrameFactoryTest.cpp
FN:13,_ZN16FrameFactoryTestC2Ev
FN:18,_ZN16FrameFactoryTestD0Ev
FN:18,_ZN16FrameFactoryTestD2Ev
FN:23,_ZN16FrameFactoryTest5SetUpEv
FN:28,_ZN16FrameFactoryTest8TearDownEv
FN:38,_ZN43FrameFactoryTest_TestCreateNormalFrame_TestD2Ev
FN:38,_ZN43FrameFactoryTest_TestCreateNormalFrame_Test8TestBodyEv
FN:38,_ZN43FrameFactoryTest_TestCreateNormalFrame_TestC2Ev
FN:38,_ZN43FrameFactoryTest_TestCreateNormalFrame_TestD0Ev
FN:55,_ZN42FrameFactoryTest_TestCreateTenthFrame_TestD2Ev
FN:55,_ZN42FrameFactoryTest_TestCreateTenthFrame_TestD0Ev
FN:55,_ZN42FrameFactoryTest_TestCreateTenthFrame_Test8TestBodyEv
FN:55,_ZN42FrameFactoryTest_TestCreateTenthFrame_TestC2Ev
FN:72,_ZN44FrameFactoryTest_TestCreateInvalidFrame_TestC2Ev
FN:72,_ZN44FrameFactoryTest_TestCreateInvalidFrame_TestD2Ev
FN:72,_ZN44FrameFactoryTest_TestCreateInvalidFrame_TestD0Ev
FN:72,_ZN44FrameFactoryTest_TestCreateInvalidFrame_Test8TestBodyEv
FN:78,_ZN55FrameFactoryTest_TestCreateAllFramesWithPinValue10_TestD2Ev
FN:78,_ZN55FrameFactoryTest_TestCreateAllFramesWithPinValue10_TestD0Ev
FN:78,_ZN55FrameFactoryTest_TestCreateAllFramesWithPinValue10_TestC2Ev
FN:78,_ZN55FrameFactoryTest_TestCreateAllFramesWithPinValue10_Test8TestBodyEv
FN:87,_ZN54FrameFactoryTest_TestCreateAllFramesWithPinValue0_TestC2Ev
FN:87,_ZN54FrameFactoryTest_TestCreateAllFramesWithPinValue0_TestD2Ev
FN:87,_ZN54FrameFactoryTest_TestCreateAllFramesWithPinValue0_Test8TestBodyEv
FN:87,_ZN54FrameFactoryTest_TestCreateAllFramesWithPinValue0_TestD0Ev
FNDA:1,_ZN55FrameFactoryTest_TestCreateAllFramesWithPinValue10_TestC2Ev
FNDA:1,_ZN44FrameFactoryTest_TestCreateInvalidFrame_Test8TestBodyEv
FNDA:1,_ZN55FrameFactoryTest_TestCreateAllFramesWithPinValue10_Test8TestBodyEv
FNDA:1,_ZN43FrameFactoryTest_TestCreateNormalFrame_TestD0Ev
FNDA:5,_ZN16FrameFactoryTestD2Ev
FNDA:1,_ZN42FrameFactoryTest_TestCreateTenthFrame_TestC2Ev
FNDA:1,_ZN55FrameFactoryTest_TestCreateAllFramesWithPinValue10_TestD0Ev
FNDA:5,_ZN16FrameFactoryTest8TearDownEv
FNDA:1,_ZN54FrameFactoryTest_TestCreateAllFramesWithPinValue0_TestD0Ev
FNDA:0,_ZN16FrameFactoryTestD0Ev
FNDA:1,_ZN43FrameFactoryTest_TestCreateNormalFrame_Test8TestBodyEv
FNDA:1,_ZN42FrameFactoryTest_TestCreateTenthFrame_Test8TestBodyEv
FNDA:1,_ZN43FrameFactoryTest_TestCreateNormalFrame_TestC2Ev
FNDA:1,_ZN55FrameFactoryTest_TestCreateAllFramesWithPinValue10_TestD2Ev
FNDA:1,_ZN44FrameFactoryTest_TestCreateInvalidFrame_TestD0Ev
FNDA:5,_ZN16FrameFactoryTestC2Ev
FNDA:1,_ZN44FrameFactoryTest_TestCreateInvalidFrame_TestC2Ev
FNDA:5,_ZN16FrameFactoryTest5SetUpEv
FNDA:1,_ZN54FrameFactoryTest_TestCreateAllFramesWithPinValue0_TestC2Ev
FNDA:1,_ZN44FrameFactoryTest_TestCreateInvalidFrame_TestD2Ev
FNDA:1,_ZN42FrameFactoryTest_TestCreateTenthFrame_TestD2Ev
FNDA:1,_ZN54FrameFactoryTest_TestCreateAllFramesWithPinValue0_TestD2Ev
FNDA:1,_ZN54FrameFactoryTest_TestCreateAllFramesWithPinValue0_Test8TestBodyEv
FNDA:1,_ZN42FrameFactoryTest_TestCreateTenthFrame_TestD0Ev
FNDA:1,_ZN43FrameFactoryTest_TestCreateNormalFrame_TestD2Ev
FNF:25
FNH:24
DA:13,5
DA:15,5
DA:16,5
DA:18,5
DA:19,5
DA:20,5
DA:21,5
DA:23,5
DA:25,5
DA:26,5
DA:28,5
DA:30,5
DA:31,5
DA:32,5
DA:38,4
DA:39,1
DA:40,1
DA:41,1
DA:42,1
DA:44,1
DA:45,1
DA:46,1
DA:48,1
DA:49,1
DA:50,1
DA:51,1
DA:55,4
DA:56,1
DA:57,1
DA:58,1
DA:59,1
DA:61,1
DA:62,1
DA:63,1
DA:65,1
DA:66,1
DA:67,1
DA:68,1
DA:72,4
DA:73,4
DA:74,1
DA:78,4
DA:79,10
DA:80,9
DA:82,1
DA:83,1
DA:87,4
DA:88,10
DA:89,9
DA:91,1
DA:92,1
LF:51
LH:51
end_of_record
TN:
SF:/home/shiv/demo/gtest/bowlinggame/unit_testing/test_main.cpp
FN:4,main
FNDA:1,main
FNF:1
FNH:1
DA:4,1
DA:5,1
DA:6,1
DA:7,1
LF:4
LH:4
end_of_record
