TN:
SF:/usr/local/include/gtest/gtest-assertion-result.h
FN:174,_ZNK7testing15AssertionResultcvbEv
FNDA:0,_ZNK7testing15AssertionResultcvbEv
FN:183,_ZNK7testing15AssertionResult7messageEv
FNDA:0,_ZNK7testing15AssertionResult7messageEv
FN:187,_ZNK7testing15AssertionResult15failure_messageEv
FNDA:0,_ZNK7testing15AssertionResult15failure_messageEv
FN:191,_ZN7testing15AssertionResultlsIA5_cEERS0_RKT_
FNDA:0,_ZN7testing15AssertionResultlsIA5_cEERS0_RKT_
FN:191,_ZN7testing15AssertionResultlsINSt7__cxx1112basic_stringIcSt11char_traitsIcESaIcEEEEERS0_RKT_
FNDA:0,_ZN7testing15AssertionResultlsINSt7__cxx1112basic_stringIcSt11char_traitsIcESaIcEEEEERS0_RKT_
FN:191,_ZN7testing15AssertionResultlsIA3_cEERS0_RKT_
FNDA:0,_ZN7testing15AssertionResultlsIA3_cEERS0_RKT_
FN:191,_ZN7testing15AssertionResultlsIPKcEERS0_RKT_
FNDA:0,_ZN7testing15AssertionResultlsIPKcEERS0_RKT_
FN:191,_ZN7testing15AssertionResultlsIA12_cEERS0_RKT_
FNDA:0,_ZN7testing15AssertionResultlsIA12_cEERS0_RKT_
FN:206,_ZN7testing15AssertionResult13AppendMessageERKNS_7MessageE
FNDA:0,_ZN7testing15AssertionResult13AppendMessageERKNS_7MessageE
DA:174,0
DA:183,0
DA:184,0
DA:187,0
DA:191,0
DA:192,0
DA:193,0
DA:191,0
DA:192,0
DA:193,0
DA:191,0
DA:192,0
DA:193,0
DA:191,0
DA:192,0
DA:193,0
DA:191,0
DA:192,0
DA:193,0
DA:206,0
DA:207,0
DA:208,0
DA:209,0
end_of_record
SF:/usr/include/c++/9/bits/stl_vector.h
FN:94,_ZNSt12_Vector_baseIP9FrameTypeSaIS1_EE17_Vector_impl_dataC2Ev
FNDA:0,_ZNSt12_Vector_baseIP9FrameTypeSaIS1_EE17_Vector_impl_dataC2Ev
FN:128,_ZNSt12_Vector_baseIP9FrameTypeSaIS1_EE12_Vector_implC2Ev
FNDA:0,_ZNSt12_Vector_baseIP9FrameTypeSaIS1_EE12_Vector_implC2Ev
FN:273,_ZNSt12_Vector_baseIP9FrameTypeSaIS1_EE19_M_get_Tp_allocatorEv
FNDA:0,_ZNSt12_Vector_baseIP9FrameTypeSaIS1_EE19_M_get_Tp_allocatorEv
FN:285,_ZNSt12_Vector_baseIP9FrameTypeSaIS1_EEC2Ev
FNDA:0,_ZNSt12_Vector_baseIP9FrameTypeSaIS1_EEC2Ev
FN:330,_ZNSt12_Vector_baseIP9FrameTypeSaIS1_EED2Ev
FNDA:0,_ZNSt12_Vector_baseIP9FrameTypeSaIS1_EED2Ev
FN:347,_ZNSt12_Vector_baseIP9FrameTypeSaIS1_EE13_M_deallocateEPS1_m
FNDA:0,_ZNSt12_Vector_baseIP9FrameTypeSaIS1_EE13_M_deallocateEPS1_m
FN:484,_ZNSt6vectorIP9FrameTypeSaIS1_EEC2Ev
FNDA:0,_ZNSt6vectorIP9FrameTypeSaIS1_EEC2Ev
FN:675,_ZNSt6vectorIP9FrameTypeSaIS1_EED2Ev
FNDA:0,_ZNSt6vectorIP9FrameTypeSaIS1_EED2Ev
FN:808,_ZNSt6vectorIP9FrameTypeSaIS1_EE5beginEv
FNDA:0,_ZNSt6vectorIP9FrameTypeSaIS1_EE5beginEv
FN:826,_ZNSt6vectorIP9FrameTypeSaIS1_EE3endEv
FNDA:0,_ZNSt6vectorIP9FrameTypeSaIS1_EE3endEv
FN:915,_ZNKSt6vectorIP9FrameTypeSaIS1_EE4sizeEv
FNDA:0,_ZNKSt6vectorIP9FrameTypeSaIS1_EE4sizeEv
FN:1040,_ZNSt6vectorIP9FrameTypeSaIS1_EEixEm
FNDA:0,_ZNSt6vectorIP9FrameTypeSaIS1_EEixEm
FN:1495,_ZNSt6vectorIP9FrameTypeSaIS1_EE5clearEv
FNDA:0,_ZNSt6vectorIP9FrameTypeSaIS1_EE5clearEv
FN:1789,_ZNSt6vectorIP9FrameTypeSaIS1_EE15_M_erase_at_endEPS1_
FNDA:0,_ZNSt6vectorIP9FrameTypeSaIS1_EE15_M_erase_at_endEPS1_
DA:94,0
DA:95,0
DA:96,0
DA:128,0
DA:130,0
DA:131,0
DA:273,0
DA:274,0
DA:285,0
DA:330,0
DA:332,0
DA:333,0
DA:334,0
DA:347,0
DA:350,0
DA:351,0
DA:352,0
DA:484,0
DA:675,0
DA:677,0
DA:678,0
DA:680,0
DA:808,0
DA:809,0
DA:826,0
DA:827,0
DA:915,0
DA:916,0
DA:1040,0
DA:1043,0
DA:1495,0
DA:1496,0
DA:1789,0
DA:1791,0
DA:1793,0
DA:1794,0
DA:1795,0
DA:1798,0
end_of_record
SF:/home/shiv/demo/gtest/bowlinggame/app/include/BowlingGame.hpp
FN:20,_ZN11BowlingGameC2Ei
FNDA:0,_ZN11BowlingGameC2Ei
FN:21,_ZN11BowlingGameD2Ev
FNDA:0,_ZN11BowlingGameD2Ev
FN:23,_ZN11BowlingGame8shutDownEv
FNDA:0,_ZN11BowlingGame8shutDownEv
FN:32,_ZN11BowlingGame8getframeEv
FNDA:0,_ZN11BowlingGame8getframeEv
DA:20,0
DA:21,0
DA:23,0
DA:25,0
DA:27,0
DA:29,0
DA:30,0
DA:32,0
DA:34,0
end_of_record
SF:/usr/include/c++/9/bits/basic_string.h
FN:160,_ZNSt7__cxx1112basic_stringIcSt11char_traitsIcESaIcEE12_Alloc_hiderC2EPcRKS3_
FNDA:0,_ZNSt7__cxx1112basic_stringIcSt11char_traitsIcESaIcEE12_Alloc_hiderC2EPcRKS3_
FN:163,_ZNSt7__cxx1112basic_stringIcSt11char_traitsIcESaIcEE12_Alloc_hiderC2EPcOS3_
FNDA:0,_ZNSt7__cxx1112basic_stringIcSt11char_traitsIcESaIcEE12_Alloc_hiderC2EPcOS3_
FN:182,_ZNSt7__cxx1112basic_stringIcSt11char_traitsIcESaIcEE7_M_dataEPc
FNDA:0,_ZNSt7__cxx1112basic_stringIcSt11char_traitsIcESaIcEE7_M_dataEPc
FN:186,_ZNSt7__cxx1112basic_stringIcSt11char_traitsIcESaIcEE9_M_lengthEm
FNDA:0,_ZNSt7__cxx1112basic_stringIcSt11char_traitsIcESaIcEE9_M_lengthEm
FN:190,_ZNKSt7__cxx1112basic_stringIcSt11char_traitsIcESaIcEE7_M_dataEv
FNDA:0,_ZNKSt7__cxx1112basic_stringIcSt11char_traitsIcESaIcEE7_M_dataEv
FN:194,_ZNSt7__cxx1112basic_stringIcSt11char_traitsIcESaIcEE13_M_local_dataEv
FNDA:0,_ZNSt7__cxx1112basic_stringIcSt11char_traitsIcESaIcEE13_M_local_dataEv
FN:204,_ZNKSt7__cxx1112basic_stringIcSt11char_traitsIcESaIcEE13_M_local_dataEv
FNDA:0,_ZNKSt7__cxx1112basic_stringIcSt11char_traitsIcESaIcEE13_M_local_dataEv
FN:214,_ZNSt7__cxx1112basic_stringIcSt11char_traitsIcESaIcEE11_M_capacityEm
FNDA:0,_ZNSt7__cxx1112basic_stringIcSt11char_traitsIcESaIcEE11_M_capacityEm
FN:218,_ZNSt7__cxx1112basic_stringIcSt11char_traitsIcESaIcEE13_M_set_lengthEm
FNDA:0,_ZNSt7__cxx1112basic_stringIcSt11char_traitsIcESaIcEE13_M_set_lengthEm
FN:225,_ZNKSt7__cxx1112basic_stringIcSt11char_traitsIcESaIcEE11_M_is_localEv
FNDA:0,_ZNKSt7__cxx1112basic_stringIcSt11char_traitsIcESaIcEE11_M_is_localEv
FN:233,_ZNSt7__cxx1112basic_stringIcSt11char_traitsIcESaIcEE10_M_disposeEv
FNDA:0,_ZNSt7__cxx1112basic_stringIcSt11char_traitsIcESaIcEE10_M_disposeEv
FN:240,_ZNSt7__cxx1112basic_stringIcSt11char_traitsIcESaIcEE10_M_destroyEm
FNDA:0,_ZNSt7__cxx1112basic_stringIcSt11char_traitsIcESaIcEE10_M_destroyEm
FN:247,_ZNSt7__cxx1112basic_stringIcSt11char_traitsIcESaIcEE16_M_construct_auxIPcEEvT_S7_St12__false_type
FNDA:0,_ZNSt7__cxx1112basic_stringIcSt11char_traitsIcESaIcEE16_M_construct_auxIPcEEvT_S7_St12__false_type
FN:247,_ZNSt7__cxx1112basic_stringIcSt11char_traitsIcESaIcEE16_M_construct_auxIPKcEEvT_S8_St12__false_type
FNDA:0,_ZNSt7__cxx1112basic_stringIcSt11char_traitsIcESaIcEE16_M_construct_auxIPKcEEvT_S8_St12__false_type
FN:267,_ZNSt7__cxx1112basic_stringIcSt11char_traitsIcESaIcEE12_M_constructIPKcEEvT_S8_
FNDA:0,_ZNSt7__cxx1112basic_stringIcSt11char_traitsIcESaIcEE12_M_constructIPKcEEvT_S8_
FN:267,_ZNSt7__cxx1112basic_stringIcSt11char_traitsIcESaIcEE12_M_constructIPcEEvT_S7_
FNDA:0,_ZNSt7__cxx1112basic_stringIcSt11char_traitsIcESaIcEE12_M_constructIPcEEvT_S7_
FN:290,_ZNSt7__cxx1112basic_stringIcSt11char_traitsIcESaIcEE16_M_get_allocatorEv
FNDA:0,_ZNSt7__cxx1112basic_stringIcSt11char_traitsIcESaIcEE16_M_get_allocatorEv
FN:294,_ZNKSt7__cxx1112basic_stringIcSt11char_traitsIcESaIcEE16_M_get_allocatorEv
FNDA:0,_ZNKSt7__cxx1112basic_stringIcSt11char_traitsIcESaIcEE16_M_get_allocatorEv
FN:314,_ZNKSt7__cxx1112basic_stringIcSt11char_traitsIcESaIcEE8_M_checkEmPKc
FNDA:0,_ZNKSt7__cxx1112basic_stringIcSt11char_traitsIcESaIcEE8_M_checkEmPKc
FN:324,_ZNKSt7__cxx1112basic_stringIcSt11char_traitsIcESaIcEE15_M_check_lengthEmmPKc
FNDA:160,_ZNKSt7__cxx1112basic_stringIcSt11char_traitsIcESaIcEE15_M_check_lengthEmmPKc
FN:333,_ZNKSt7__cxx1112basic_stringIcSt11char_traitsIcESaIcEE8_M_limitEmm
FNDA:0,_ZNKSt7__cxx1112basic_stringIcSt11char_traitsIcESaIcEE8_M_limitEmm
FN:341,_ZNKSt7__cxx1112basic_stringIcSt11char_traitsIcESaIcEE11_M_disjunctEPKc
FNDA:85,_ZNKSt7__cxx1112basic_stringIcSt11char_traitsIcESaIcEE11_M_disjunctEPKc
FN:350,_ZNSt7__cxx1112basic_stringIcSt11char_traitsIcESaIcEE7_S_copyEPcPKcm
FNDA:0,_ZNSt7__cxx1112basic_stringIcSt11char_traitsIcESaIcEE7_S_copyEPcPKcm
FN:359,_ZNSt7__cxx1112basic_stringIcSt11char_traitsIcESaIcEE7_S_moveEPcPKcm
FNDA:0,_ZNSt7__cxx1112basic_stringIcSt11char_traitsIcESaIcEE7_S_moveEPcPKcm
FN:396,_ZNSt7__cxx1112basic_stringIcSt11char_traitsIcESaIcEE13_S_copy_charsEPcS5_S5_
FNDA:0,_ZNSt7__cxx1112basic_stringIcSt11char_traitsIcESaIcEE13_S_copy_charsEPcS5_S5_
FN:400,_ZNSt7__cxx1112basic_stringIcSt11char_traitsIcESaIcEE13_S_copy_charsEPcPKcS7_
FNDA:0,_ZNSt7__cxx1112basic_stringIcSt11char_traitsIcESaIcEE13_S_copy_charsEPcPKcS7_
FN:405,_ZNSt7__cxx1112basic_stringIcSt11char_traitsIcESaIcEE10_S_compareEmm
FNDA:0,_ZNSt7__cxx1112basic_stringIcSt11char_traitsIcESaIcEE10_S_compareEmm
FN:435,_ZNSt7__cxx1112basic_stringIcSt11char_traitsIcESaIcEEC2Ev
FNDA:268,_ZNSt7__cxx1112basic_stringIcSt11char_traitsIcESaIcEEC2Ev
FN:452,_ZNSt7__cxx1112basic_stringIcSt11char_traitsIcESaIcEEC2ERKS4_
FNDA:0,_ZNSt7__cxx1112basic_stringIcSt11char_traitsIcESaIcEEC2ERKS4_
FN:529,_ZNSt7__cxx1112basic_stringIcSt11char_traitsIcESaIcEEC2IS3_EEPKcRKS3_
FNDA:0,_ZNSt7__cxx1112basic_stringIcSt11char_traitsIcESaIcEEC2IS3_EEPKcRKS3_
FN:556,_ZNSt7__cxx1112basic_stringIcSt11char_traitsIcESaIcEEC2EOS4_
FNDA:127,_ZNSt7__cxx1112basic_stringIcSt11char_traitsIcESaIcEEC2EOS4_
FN:661,_ZNSt7__cxx1112basic_stringIcSt11char_traitsIcESaIcEED2Ev
FNDA:0,_ZNSt7__cxx1112basic_stringIcSt11char_traitsIcESaIcEED2Ev
FN:708,_ZNSt7__cxx1112basic_stringIcSt11char_traitsIcESaIcEEaSEPKc
FNDA:0,_ZNSt7__cxx1112basic_stringIcSt11char_traitsIcESaIcEEaSEPKc
FN:934,_ZNKSt7__cxx1112basic_stringIcSt11char_traitsIcESaIcEE4sizeEv
FNDA:0,_ZNKSt7__cxx1112basic_stringIcSt11char_traitsIcESaIcEE4sizeEv
FN:940,_ZNKSt7__cxx1112basic_stringIcSt11char_traitsIcESaIcEE6lengthEv
FNDA:0,_ZNKSt7__cxx1112basic_stringIcSt11char_traitsIcESaIcEE6lengthEv
FN:945,_ZNKSt7__cxx1112basic_stringIcSt11char_traitsIcESaIcEE8max_sizeEv
FNDA:0,_ZNKSt7__cxx1112basic_stringIcSt11char_traitsIcESaIcEE8max_sizeEv
FN:997,_ZNKSt7__cxx1112basic_stringIcSt11char_traitsIcESaIcEE8capacityEv
FNDA:266,_ZNKSt7__cxx1112basic_stringIcSt11char_traitsIcESaIcEE8capacityEv
FN:1172,_ZNSt7__cxx1112basic_stringIcSt11char_traitsIcESaIcEEpLERKS4_
FNDA:0,_ZNSt7__cxx1112basic_stringIcSt11char_traitsIcESaIcEEpLERKS4_
FN:1181,_ZNSt7__cxx1112basic_stringIcSt11char_traitsIcESaIcEEpLEPKc
FNDA:0,_ZNSt7__cxx1112basic_stringIcSt11char_traitsIcESaIcEEpLEPKc
FN:1225,_ZNSt7__cxx1112basic_stringIcSt11char_traitsIcESaIcEE6appendERKS4_
FNDA:30,_ZNSt7__cxx1112basic_stringIcSt11char_traitsIcESaIcEE6appendERKS4_
FN:1267,_ZNSt7__cxx1112basic_stringIcSt11char_traitsIcESaIcEE6appendEPKc
FNDA:48,_ZNSt7__cxx1112basic_stringIcSt11char_traitsIcESaIcEE6appendEPKc
FN:1439,_ZNSt7__cxx1112basic_stringIcSt11char_traitsIcESaIcEE6assignEPKc
FNDA:0,_ZNSt7__cxx1112basic_stringIcSt11char_traitsIcESaIcEE6assignEPKc
FN:1811,_ZNSt7__cxx1112basic_stringIcSt11char_traitsIcESaIcEE5eraseEmm
FNDA:0,_ZNSt7__cxx1112basic_stringIcSt11char_traitsIcESaIcEE5eraseEmm
FN:2304,_ZNKSt7__cxx1112basic_stringIcSt11char_traitsIcESaIcEE5c_strEv
FNDA:0,_ZNKSt7__cxx1112basic_stringIcSt11char_traitsIcESaIcEE5c_strEv
FN:2316,_ZNKSt7__cxx1112basic_stringIcSt11char_traitsIcESaIcEE4dataEv
FNDA:122,_ZNKSt7__cxx1112basic_stringIcSt11char_traitsIcESaIcEE4dataEv
FN:2397,_ZNKSt7__cxx1112basic_stringIcSt11char_traitsIcESaIcEE4findEPKcm
FNDA:0,_ZNKSt7__cxx1112basic_stringIcSt11char_traitsIcESaIcEE4findEPKcm
DA:160,0
DA:161,0
DA:163,0
DA:164,0
DA:182,0
DA:183,0
DA:186,0
DA:187,0
DA:190,0
DA:191,0
DA:194,0
DA:197,0
DA:204,0
DA:207,0
DA:214,0
DA:215,0
DA:218,0
DA:220,0
DA:221,0
DA:222,0
DA:225,0
DA:226,0
DA:233,0
DA:235,0
DA:236,0
DA:237,0
DA:240,0
DA:241,0
DA:247,0
DA:251,0
DA:252,0
DA:247,0
DA:251,0
DA:252,0
DA:267,0
DA:270,0
DA:271,0
DA:267,0
DA:270,0
DA:271,0
DA:290,0
DA:291,0
DA:294,0
DA:295,0
DA:314,0
DA:316,0
DA:317,0
DA:320,0
DA:324,160
DA:326,160
DA:327,0
DA:328,160
DA:333,0
DA:335,0
DA:336,0
DA:341,85
DA:343,85
DA:344,85
DA:350,0
DA:352,0
DA:353,0
DA:355,0
DA:356,0
DA:359,0
DA:361,0
DA:362,0
DA:364,0
DA:365,0
DA:396,0
DA:397,0
DA:400,0
DA:402,0
DA:405,0
DA:407,0
DA:409,0
DA:410,0
DA:411,0
DA:412,0
DA:414,0
DA:435,268
DA:437,268
DA:438,268
DA:452,0
DA:454,0
DA:455,0
DA:529,0
DA:530,0
DA:531,0
DA:556,127
DA:557,127
DA:559,127
DA:561,86
DA:566,41
DA:567,41
DA:573,127
DA:574,127
DA:575,127
DA:576,127
DA:661,0
DA:662,0
DA:708,0
DA:709,0
DA:934,0
DA:935,0
DA:940,0
DA:941,0
DA:945,0
DA:946,0
DA:997,266
DA:999,266
DA:1000,266
DA:1172,0
DA:1173,0
DA:1181,0
DA:1182,0
DA:1225,30
DA:1226,30
DA:1267,48
DA:1270,48
DA:1271,48
DA:1272,48
DA:1439,0
DA:1443,0
DA:1811,0
DA:1813,0
DA:1814,0
DA:1815,0
DA:1816,0
DA:1817,0
DA:1818,0
DA:2304,0
DA:2305,0
DA:2316,122
DA:2317,122
DA:2397,0
DA:2400,0
end_of_record
SF:/usr/include/c++/9/bits/ptr_traits.h
FN:146,_ZNSt14pointer_traitsIPKcE10pointer_toERS0_
FNDA:0,_ZNSt14pointer_traitsIPKcE10pointer_toERS0_
FN:146,_ZNSt14pointer_traitsIPcE10pointer_toERc
FNDA:0,_ZNSt14pointer_traitsIPcE10pointer_toERc
DA:146,0
DA:147,0
DA:146,0
DA:147,0
end_of_record
SF:/usr/include/c++/9/bits/char_traits.h
FN:100,_ZN9__gnu_cxx11char_traitsIcE2eqERKcS3_
FNDA:0,_ZN9__gnu_cxx11char_traitsIcE2eqERKcS3_
FN:161,_ZN9__gnu_cxx11char_traitsIcE6lengthEPKc
FNDA:0,_ZN9__gnu_cxx11char_traitsIcE6lengthEPKc
FN:172,_ZN9__gnu_cxx11char_traitsIcE4findEPKcmRS2_
FNDA:0,_ZN9__gnu_cxx11char_traitsIcE4findEPKcmRS2_
FN:299,_ZNSt11char_traitsIcE6assignERcRKc
FNDA:0,_ZNSt11char_traitsIcE6assignERcRKc
FN:307,_ZNSt11char_traitsIcE2ltERKcS2_
FNDA:0,_ZNSt11char_traitsIcE2ltERKcS2_
FN:315,_ZNSt11char_traitsIcE7compareEPKcS2_m
FNDA:0,_ZNSt11char_traitsIcE7compareEPKcS2_m
FN:336,_ZNSt11char_traitsIcE6lengthEPKc
FNDA:0,_ZNSt11char_traitsIcE6lengthEPKc
FN:346,_ZNSt11char_traitsIcE4findEPKcmRS1_
FNDA:0,_ZNSt11char_traitsIcE4findEPKcmRS1_
FN:360,_ZNSt11char_traitsIcE4moveEPcPKcm
FNDA:0,_ZNSt11char_traitsIcE4moveEPcPKcm
FN:368,_ZNSt11char_traitsIcE4copyEPcPKcm
FNDA:0,_ZNSt11char_traitsIcE4copyEPcPKcm
DA:100,0
DA:101,0
DA:161,0
DA:164,0
DA:165,0
DA:166,0
DA:167,0
DA:172,0
DA:175,0
DA:176,0
DA:177,0
DA:178,0
DA:236,0
DA:299,0
DA:300,0
DA:307,0
DA:310,0
DA:311,0
DA:315,0
DA:317,0
DA:318,0
DA:320,0
DA:322,0
DA:324,0
DA:325,0
DA:326,0
DA:327,0
DA:328,0
DA:329,0
DA:332,0
DA:336,0
DA:339,0
DA:340,0
DA:342,0
DA:346,0
DA:348,0
DA:349,0
DA:351,0
DA:353,0
DA:354,0
DA:356,0
DA:360,0
DA:362,0
DA:363,0
DA:364,0
DA:368,0
DA:370,0
DA:371,0
DA:372,0
end_of_record
SF:/usr/local/include/gtest/internal/gtest-internal.h
FN:431,_ZN7testing8internal9GetTypeIdI16FrameFactoryTestEEPKvv
FNDA:5,_ZN7testing8internal9GetTypeIdI16FrameFactoryTestEEPKvv
FN:450,_ZN7testing8internal15TestFactoryBaseD0Ev
FNDA:0,_ZN7testing8internal15TestFactoryBaseD0Ev
FN:450,_ZN7testing8internal15TestFactoryBaseD2Ev
FNDA:0,_ZN7testing8internal15TestFactoryBaseD2Ev
FN:457,_ZN7testing8internal15TestFactoryBaseC2Ev
FNDA:0,_ZN7testing8internal15TestFactoryBaseC2Ev
FN:469,_ZN7testing8internal15TestFactoryImplI43FrameFactoryTest_TestCreateNormalFrame_TestE10CreateTestEv
FNDA:1,_ZN7testing8internal15TestFactoryImplI43FrameFactoryTest_TestCreateNormalFrame_TestE10CreateTestEv
FN:469,_ZN7testing8internal15TestFactoryImplI42FrameFactoryTest_TestCreateTenthFrame_TestE10CreateTestEv
FNDA:1,_ZN7testing8internal15TestFactoryImplI42FrameFactoryTest_TestCreateTenthFrame_TestE10CreateTestEv
FN:469,_ZN7testing8internal15TestFactoryImplI44FrameFactoryTest_TestCreateInvalidFrame_TestE10CreateTestEv
FNDA:1,_ZN7testing8internal15TestFactoryImplI44FrameFactoryTest_TestCreateInvalidFrame_TestE10CreateTestEv
FN:469,_ZN7testing8internal15TestFactoryImplI55FrameFactoryTest_TestCreateAllFramesWithPinValue10_TestE10CreateTestEv
FNDA:1,_ZN7testing8internal15TestFactoryImplI55FrameFactoryTest_TestCreateAllFramesWithPinValue10_TestE10CreateTestEv
FN:469,_ZN7testing8internal15TestFactoryImplI54FrameFactoryTest_TestCreateAllFramesWithPinValue0_TestE10CreateTestEv
FNDA:1,_ZN7testing8internal15TestFactoryImplI54FrameFactoryTest_TestCreateAllFramesWithPinValue0_TestE10CreateTestEv
FN:490,_ZN7testing8internal12CodeLocationC2ERKNSt7__cxx1112basic_stringIcSt11char_traitsIcESaIcEEEi
FNDA:0,_ZN7testing8internal12CodeLocationC2ERKNSt7__cxx1112basic_stringIcSt11char_traitsIcESaIcEEEi
FN:503,_ZN7testing8internal19GetNotDefaultOrNullEPFvvES2_
FNDA:0,_ZN7testing8internal19GetNotDefaultOrNullEPFvvES2_
FN:518,_ZN7testing8internal16SuiteApiResolverI16FrameFactoryTestE19GetSetUpCaseOrSuiteEPKci
FNDA:5,_ZN7testing8internal16SuiteApiResolverI16FrameFactoryTestE19GetSetUpCaseOrSuiteEPKci
FN:539,_ZN7testing8internal16SuiteApiResolverI16FrameFactoryTestE22GetTearDownCaseOrSuiteEPKci
FNDA:5,_ZN7testing8internal16SuiteApiResolverI16FrameFactoryTestE22GetTearDownCaseOrSuiteEPKci
FN:856,_ZN7testing8internal14TrueWithStringC2Ev
FNDA:1,_ZN7testing8internal14TrueWithStringC2Ev
FN:859,_ZNK7testing8internal14TrueWithStringcvbEv
FNDA:1,_ZNK7testing8internal14TrueWithStringcvbEv
DA:431,5
DA:436,5
DA:450,0
DA:450,0
DA:457,0
DA:469,1
DA:469,1
DA:469,1
DA:469,1
DA:469,1
DA:490,0
DA:491,0
DA:503,0
DA:505,0
DA:518,5
DA:522,5
DA:524,5
DA:526,5
DA:529,0
DA:531,5
DA:539,5
DA:543,5
DA:545,5
DA:547,5
DA:550,0
DA:552,5
DA:856,1
DA:859,1
end_of_record
SF:/usr/include/c++/9/bits/stl_function.h
FN:433,_ZNKSt4lessIPKcEclES1_S1_
FNDA:85,_ZNKSt4lessIPKcEclES1_S1_
DA:433,85
DA:443,85
end_of_record
SF:/usr/include/c++/9/bits/stl_iterator.h
FN:803,_ZN9__gnu_cxx17__normal_iteratorIPP9FrameTypeSt6vectorIS2_SaIS2_EEEC2ERKS3_
FNDA:0,_ZN9__gnu_cxx17__normal_iteratorIPP9FrameTypeSt6vectorIS2_SaIS2_EEEC2ERKS3_
FN:816,_ZNK9__gnu_cxx17__normal_iteratorIPP9FrameTypeSt6vectorIS2_SaIS2_EEEdeEv
FNDA:0,_ZNK9__gnu_cxx17__normal_iteratorIPP9FrameTypeSt6vectorIS2_SaIS2_EEEdeEv
FN:824,_ZN9__gnu_cxx17__normal_iteratorIPP9FrameTypeSt6vectorIS2_SaIS2_EEEppEv
FNDA:0,_ZN9__gnu_cxx17__normal_iteratorIPP9FrameTypeSt6vectorIS2_SaIS2_EEEppEv
FN:868,_ZNK9__gnu_cxx17__normal_iteratorIPP9FrameTypeSt6vectorIS2_SaIS2_EEE4baseEv
FNDA:0,_ZNK9__gnu_cxx17__normal_iteratorIPP9FrameTypeSt6vectorIS2_SaIS2_EEE4baseEv
FN:904,_ZN9__gnu_cxxneIPP9FrameTypeSt6vectorIS2_SaIS2_EEEEbRKNS_17__normal_iteratorIT_T0_EESC_
FNDA:0,_ZN9__gnu_cxxneIPP9FrameTypeSt6vectorIS2_SaIS2_EEEEbRKNS_17__normal_iteratorIT_T0_EESC_
DA:803,0
DA:804,0
DA:816,0
DA:817,0
DA:824,0
DA:826,0
DA:827,0
DA:868,0
DA:869,0
DA:904,0
DA:907,0
end_of_record
SF:/usr/include/c++/9/bits/basic_string.tcc
FN:132,_ZNSt7__cxx1112basic_stringIcSt11char_traitsIcESaIcEE9_M_createERmm
FNDA:0,_ZNSt7__cxx1112basic_stringIcSt11char_traitsIcESaIcEE9_M_createERmm
FN:206,_ZNSt7__cxx1112basic_stringIcSt11char_traitsIcESaIcEE12_M_constructIPcEEvT_S7_St20forward_iterator_tag
FNDA:0,_ZNSt7__cxx1112basic_stringIcSt11char_traitsIcESaIcEE12_M_constructIPcEEvT_S7_St20forward_iterator_tag
FN:206,_ZNSt7__cxx1112basic_stringIcSt11char_traitsIcESaIcEE12_M_constructIPKcEEvT_S8_St20forward_iterator_tag
FNDA:0,_ZNSt7__cxx1112basic_stringIcSt11char_traitsIcESaIcEE12_M_constructIPKcEEvT_S8_St20forward_iterator_tag
FN:310,_ZNSt7__cxx1112basic_stringIcSt11char_traitsIcESaIcEE9_M_mutateEmmPKcm
FNDA:76,_ZNSt7__cxx1112basic_stringIcSt11char_traitsIcESaIcEE9_M_mutateEmmPKcm
FN:334,_ZNSt7__cxx1112basic_stringIcSt11char_traitsIcESaIcEE8_M_eraseEmm
FNDA:0,_ZNSt7__cxx1112basic_stringIcSt11char_traitsIcESaIcEE8_M_eraseEmm
FN:359,_ZNSt7__cxx1112basic_stringIcSt11char_traitsIcESaIcEE9_M_appendEPKcm
FNDA:78,_ZNSt7__cxx1112basic_stringIcSt11char_traitsIcESaIcEE9_M_appendEPKcm
FN:421,_ZNSt7__cxx1112basic_stringIcSt11char_traitsIcESaIcEE10_M_replaceEmmPKcm
FNDA:112,_ZNSt7__cxx1112basic_stringIcSt11char_traitsIcESaIcEE10_M_replaceEmmPKcm
FN:1188,_ZNKSt7__cxx1112basic_stringIcSt11char_traitsIcESaIcEE4findEPKcmm
FNDA:0,_ZNKSt7__cxx1112basic_stringIcSt11char_traitsIcESaIcEE4findEPKcmm
FN:1433,_ZNKSt7__cxx1112basic_stringIcSt11char_traitsIcESaIcEE7compareEmmPKc
FNDA:0,_ZNKSt7__cxx1112basic_stringIcSt11char_traitsIcESaIcEE7compareEmmPKc
DA:132,0
DA:137,0
DA:138,0
DA:143,0
DA:145,0
DA:147,0
DA:148,0
DA:153,0
DA:206,0
DA:211,0
DA:212,0
DA:215,0
DA:217,0
DA:219,0
DA:220,0
DA:225,0
DA:232,0
DA:233,0
DA:206,0
DA:211,0
DA:212,0
DA:215,0
DA:217,0
DA:219,0
DA:220,0
DA:225,0
DA:232,0
DA:233,0
DA:310,76
DA:314,76
DA:316,76
DA:317,76
DA:319,76
DA:320,49
DA:321,76
DA:322,76
DA:323,76
DA:324,0
DA:325,0
DA:327,76
DA:328,76
DA:329,76
DA:330,76
DA:334,0
DA:337,0
DA:339,0
DA:340,0
DA:342,0
DA:343,0
DA:359,78
DA:362,78
DA:364,78
DA:366,29
DA:367,29
DA:370,49
DA:372,78
DA:373,78
DA:421,112
DA:425,112
DA:427,112
DA:428,112
DA:430,112
DA:432,85
DA:434,85
DA:435,85
DA:437,85
DA:438,0
DA:439,85
DA:440,85
DA:445,0
DA:446,0
DA:447,0
DA:448,0
DA:449,0
DA:451,0
DA:452,0
DA:453,0
DA:454,0
DA:457,0
DA:458,0
DA:459,0
DA:466,27
DA:468,112
DA:469,112
DA:1188,0
DA:1193,0
DA:1195,0
DA:1196,0
DA:1197,0
DA:1198,0
DA:1200,0
DA:1201,0
DA:1202,0
DA:1203,0
DA:1204,0
DA:1206,0
DA:1209,0
DA:1210,0
DA:1211,0
DA:1215,0
DA:1216,0
DA:1217,0
DA:1219,0
DA:1433,0
DA:1437,0
DA:1438,0
DA:1439,0
DA:1440,0
DA:1441,0
DA:1442,0
DA:1443,0
DA:1444,0
end_of_record
SF:/usr/include/c++/9/tuple
FN:113,_ZNSt10_Head_baseILm1ESt14default_deleteINSt7__cxx1118basic_stringstreamIcSt11char_traitsIcESaIcEEEELb1EE7_M_headERS8_
FNDA:0,_ZNSt10_Head_baseILm1ESt14default_deleteINSt7__cxx1118basic_stringstreamIcSt11char_traitsIcESaIcEEEELb1EE7_M_headERS8_
FN:113,_ZNSt10_Head_baseILm1ESt14default_deleteINSt7__cxx1112basic_stringIcSt11char_traitsIcESaIcEEEELb1EE7_M_headERS8_
FNDA:0,_ZNSt10_Head_baseILm1ESt14default_deleteINSt7__cxx1112basic_stringIcSt11char_traitsIcESaIcEEEELb1EE7_M_headERS8_
FN:160,_ZNSt10_Head_baseILm1EiLb0EE7_M_headERS0_
FNDA:0,_ZNSt10_Head_baseILm1EiLb0EE7_M_headERS0_
FN:160,_ZNSt10_Head_baseILm2EiLb0EE7_M_headERS0_
FNDA:0,_ZNSt10_Head_baseILm2EiLb0EE7_M_headERS0_
FN:160,_ZNSt10_Head_baseILm0EPNSt7__cxx1112basic_stringIcSt11char_traitsIcESaIcEEELb0EE7_M_headERS7_
FNDA:0,_ZNSt10_Head_baseILm0EPNSt7__cxx1112basic_stringIcSt11char_traitsIcESaIcEEELb0EE7_M_headERS7_
FN:160,_ZNSt10_Head_baseILm0EiLb0EE7_M_headERS0_
FNDA:0,_ZNSt10_Head_baseILm0EiLb0EE7_M_headERS0_
FN:160,_ZNSt10_Head_baseILm0EPNSt7__cxx1118basic_stringstreamIcSt11char_traitsIcESaIcEEELb0EE7_M_headERS7_
FNDA:0,_ZNSt10_Head_baseILm0EPNSt7__cxx1118basic_stringstreamIcSt11char_traitsIcESaIcEEELb0EE7_M_headERS7_
FN:163,_ZNSt10_Head_baseILm0EPNSt7__cxx1118basic_stringstreamIcSt11char_traitsIcESaIcEEELb0EE7_M_headERKS7_
FNDA:669,_ZNSt10_Head_baseILm0EPNSt7__cxx1118basic_stringstreamIcSt11char_traitsIcESaIcEEELb0EE7_M_headERKS7_
FN:163,_ZNSt10_Head_baseILm0EPNSt7__cxx1112basic_stringIcSt11char_traitsIcESaIcEEELb0EE7_M_headERKS7_
FNDA:0,_ZNSt10_Head_baseILm0EPNSt7__cxx1112basic_stringIcSt11char_traitsIcESaIcEEELb0EE7_M_headERKS7_
FN:195,_ZNSt11_Tuple_implILm0EJPNSt7__cxx1112basic_stringIcSt11char_traitsIcESaIcEEESt14default_deleteIS5_EEE7_M_headERS9_
FNDA:0,_ZNSt11_Tuple_implILm0EJPNSt7__cxx1112basic_stringIcSt11char_traitsIcESaIcEEESt14default_deleteIS5_EEE7_M_headERS9_
FN:195,_ZNSt11_Tuple_implILm1EJiiEE7_M_headERS0_
FNDA:0,_ZNSt11_Tuple_implILm1EJiiEE7_M_headERS0_
FN:195,_ZNSt11_Tuple_implILm0EJPNSt7__cxx1118basic_stringstreamIcSt11char_traitsIcESaIcEEESt14default_deleteIS5_EEE7_M_headERS9_
FNDA:0,_ZNSt11_Tuple_implILm0EJPNSt7__cxx1118basic_stringstreamIcSt11char_traitsIcESaIcEEESt14default_deleteIS5_EEE7_M_headERS9_
FN:195,_ZNSt11_Tuple_implILm0EJiiiEE7_M_headERS0_
FNDA:0,_ZNSt11_Tuple_implILm0EJiiiEE7_M_headERS0_
FN:198,_ZNSt11_Tuple_implILm0EJPNSt7__cxx1112basic_stringIcSt11char_traitsIcESaIcEEESt14default_deleteIS5_EEE7_M_headERKS9_
FNDA:0,_ZNSt11_Tuple_implILm0EJPNSt7__cxx1112basic_stringIcSt11char_traitsIcESaIcEEESt14default_deleteIS5_EEE7_M_headERKS9_
FN:198,_ZNSt11_Tuple_implILm0EJPNSt7__cxx1118basic_stringstreamIcSt11char_traitsIcESaIcEEESt14default_deleteIS5_EEE7_M_headERKS9_
FNDA:669,_ZNSt11_Tuple_implILm0EJPNSt7__cxx1118basic_stringstreamIcSt11char_traitsIcESaIcEEESt14default_deleteIS5_EEE7_M_headERKS9_
FN:334,_ZNSt11_Tuple_implILm1EJSt14default_deleteINSt7__cxx1118basic_stringstreamIcSt11char_traitsIcESaIcEEEEEE7_M_headERS8_
FNDA:0,_ZNSt11_Tuple_implILm1EJSt14default_deleteINSt7__cxx1118basic_stringstreamIcSt11char_traitsIcESaIcEEEEEE7_M_headERS8_
FN:334,_ZNSt11_Tuple_implILm2EJiEE7_M_headERS0_
FNDA:0,_ZNSt11_Tuple_implILm2EJiEE7_M_headERS0_
FN:334,_ZNSt11_Tuple_implILm1EJSt14default_deleteINSt7__cxx1112basic_stringIcSt11char_traitsIcESaIcEEEEEE7_M_headERS8_
FNDA:0,_ZNSt11_Tuple_implILm1EJSt14default_deleteINSt7__cxx1112basic_stringIcSt11char_traitsIcESaIcEEEEEE7_M_headERS8_
FN:1309,_ZSt12__get_helperILm1ESt14default_deleteINSt7__cxx1112basic_stringIcSt11char_traitsIcESaIcEEEEJEERT0_RSt11_Tuple_implIXT_EJS8_DpT1_EE
FNDA:0,_ZSt12__get_helperILm1ESt14default_deleteINSt7__cxx1112basic_stringIcSt11char_traitsIcESaIcEEEEJEERT0_RSt11_Tuple_implIXT_EJS8_DpT1_EE
FN:1309,_ZSt12__get_helperILm1EiJiEERT0_RSt11_Tuple_implIXT_EJS0_DpT1_EE
FNDA:0,_ZSt12__get_helperILm1EiJiEERT0_RSt11_Tuple_implIXT_EJS0_DpT1_EE
FN:1309,_ZSt12__get_helperILm2EiJEERT0_RSt11_Tuple_implIXT_EJS0_DpT1_EE
FNDA:0,_ZSt12__get_helperILm2EiJEERT0_RSt11_Tuple_implIXT_EJS0_DpT1_EE
FN:1309,_ZSt12__get_helperILm0EPNSt7__cxx1118basic_stringstreamIcSt11char_traitsIcESaIcEEEJSt14default_deleteIS5_EEERT0_RSt11_Tuple_implIXT_EJS9_DpT1_EE
FNDA:0,_ZSt12__get_helperILm0EPNSt7__cxx1118basic_stringstreamIcSt11char_traitsIcESaIcEEEJSt14default_deleteIS5_EEERT0_RSt11_Tuple_implIXT_EJS9_DpT1_EE
FN:1309,_ZSt12__get_helperILm0EiJiiEERT0_RSt11_Tuple_implIXT_EJS0_DpT1_EE
FNDA:0,_ZSt12__get_helperILm0EiJiiEERT0_RSt11_Tuple_implIXT_EJS0_DpT1_EE
FN:1309,_ZSt12__get_helperILm0EPNSt7__cxx1112basic_stringIcSt11char_traitsIcESaIcEEEJSt14default_deleteIS5_EEERT0_RSt11_Tuple_implIXT_EJS9_DpT1_EE
FNDA:0,_ZSt12__get_helperILm0EPNSt7__cxx1112basic_stringIcSt11char_traitsIcESaIcEEEJSt14default_deleteIS5_EEERT0_RSt11_Tuple_implIXT_EJS9_DpT1_EE
FN:1309,_ZSt12__get_helperILm1ESt14default_deleteINSt7__cxx1118basic_stringstreamIcSt11char_traitsIcESaIcEEEEJEERT0_RSt11_Tuple_implIXT_EJS8_DpT1_EE
FNDA:0,_ZSt12__get_helperILm1ESt14default_deleteINSt7__cxx1118basic_stringstreamIcSt11char_traitsIcESaIcEEEEJEERT0_RSt11_Tuple_implIXT_EJS8_DpT1_EE
FN:1314,_ZSt12__get_helperILm0EPNSt7__cxx1112basic_stringIcSt11char_traitsIcESaIcEEEJSt14default_deleteIS5_EEERKT0_RKSt11_Tuple_implIXT_EJS9_DpT1_EE
FNDA:0,_ZSt12__get_helperILm0EPNSt7__cxx1112basic_stringIcSt11char_traitsIcESaIcEEEJSt14default_deleteIS5_EEERKT0_RKSt11_Tuple_implIXT_EJS9_DpT1_EE
FN:1314,_ZSt12__get_helperILm0EPNSt7__cxx1118basic_stringstreamIcSt11char_traitsIcESaIcEEEJSt14default_deleteIS5_EEERKT0_RKSt11_Tuple_implIXT_EJS9_DpT1_EE
FNDA:669,_ZSt12__get_helperILm0EPNSt7__cxx1118basic_stringstreamIcSt11char_traitsIcESaIcEEEJSt14default_deleteIS5_EEERKT0_RKSt11_Tuple_implIXT_EJS9_DpT1_EE
FN:1320,_ZSt3getILm1EJiiiEERNSt13tuple_elementIXT_ESt5tupleIJDpT0_EEE4typeERS4_
FNDA:0,_ZSt3getILm1EJiiiEERNSt13tuple_elementIXT_ESt5tupleIJDpT0_EEE4typeERS4_
FN:1320,_ZSt3getILm0EJiiiEERNSt13tuple_elementIXT_ESt5tupleIJDpT0_EEE4typeERS4_
FNDA:0,_ZSt3getILm0EJiiiEERNSt13tuple_elementIXT_ESt5tupleIJDpT0_EEE4typeERS4_
FN:1320,_ZSt3getILm1EJPNSt7__cxx1118basic_stringstreamIcSt11char_traitsIcESaIcEEESt14default_deleteIS5_EEERNSt13tuple_elementIXT_ESt5tupleIJDpT0_EEE4typeERSD_
FNDA:0,_ZSt3getILm1EJPNSt7__cxx1118basic_stringstreamIcSt11char_traitsIcESaIcEEESt14default_deleteIS5_EEERNSt13tuple_elementIXT_ESt5tupleIJDpT0_EEE4typeERSD_
FN:1320,_ZSt3getILm2EJiiiEERNSt13tuple_elementIXT_ESt5tupleIJDpT0_EEE4typeERS4_
FNDA:0,_ZSt3getILm2EJiiiEERNSt13tuple_elementIXT_ESt5tupleIJDpT0_EEE4typeERS4_
FN:1320,_ZSt3getILm0EJPNSt7__cxx1118basic_stringstreamIcSt11char_traitsIcESaIcEEESt14default_deleteIS5_EEERNSt13tuple_elementIXT_ESt5tupleIJDpT0_EEE4typeERSD_
FNDA:0,_ZSt3getILm0EJPNSt7__cxx1118basic_stringstreamIcSt11char_traitsIcESaIcEEESt14default_deleteIS5_EEERNSt13tuple_elementIXT_ESt5tupleIJDpT0_EEE4typeERSD_
FN:1320,_ZSt3getILm0EJPNSt7__cxx1112basic_stringIcSt11char_traitsIcESaIcEEESt14default_deleteIS5_EEERNSt13tuple_elementIXT_ESt5tupleIJDpT0_EEE4typeERSD_
FNDA:0,_ZSt3getILm0EJPNSt7__cxx1112basic_stringIcSt11char_traitsIcESaIcEEESt14default_deleteIS5_EEERNSt13tuple_elementIXT_ESt5tupleIJDpT0_EEE4typeERSD_
FN:1320,_ZSt3getILm1EJPNSt7__cxx1112basic_stringIcSt11char_traitsIcESaIcEEESt14default_deleteIS5_EEERNSt13tuple_elementIXT_ESt5tupleIJDpT0_EEE4typeERSD_
FNDA:0,_ZSt3getILm1EJPNSt7__cxx1112basic_stringIcSt11char_traitsIcESaIcEEESt14default_deleteIS5_EEERNSt13tuple_elementIXT_ESt5tupleIJDpT0_EEE4typeERSD_
FN:1326,_ZSt3getILm0EJPNSt7__cxx1112basic_stringIcSt11char_traitsIcESaIcEEESt14default_deleteIS5_EEERKNSt13tuple_elementIXT_ESt5tupleIJDpT0_EEE4typeERKSD_
FNDA:0,_ZSt3getILm0EJPNSt7__cxx1112basic_stringIcSt11char_traitsIcESaIcEEESt14default_deleteIS5_EEERKNSt13tuple_elementIXT_ESt5tupleIJDpT0_EEE4typeERKSD_
FN:1326,_ZSt3getILm0EJPNSt7__cxx1118basic_stringstreamIcSt11char_traitsIcESaIcEEESt14default_deleteIS5_EEERKNSt13tuple_elementIXT_ESt5tupleIJDpT0_EEE4typeERKSD_
FNDA:669,_ZSt3getILm0EJPNSt7__cxx1118basic_stringstreamIcSt11char_traitsIcESaIcEEESt14default_deleteIS5_EEERKNSt13tuple_elementIXT_ESt5tupleIJDpT0_EEE4typeERKSD_
FN:1332,_ZSt3getILm2EJiiiEEONSt13tuple_elementIXT_ESt5tupleIJDpT0_EEE4typeEOS4_
FNDA:0,_ZSt3getILm2EJiiiEEONSt13tuple_elementIXT_ESt5tupleIJDpT0_EEE4typeEOS4_
FN:1332,_ZSt3getILm1EJiiiEEONSt13tuple_elementIXT_ESt5tupleIJDpT0_EEE4typeEOS4_
FNDA:0,_ZSt3getILm1EJiiiEEONSt13tuple_elementIXT_ESt5tupleIJDpT0_EEE4typeEOS4_
FN:1332,_ZSt3getILm0EJiiiEEONSt13tuple_elementIXT_ESt5tupleIJDpT0_EEE4typeEOS4_
FNDA:0,_ZSt3getILm0EJiiiEEONSt13tuple_elementIXT_ESt5tupleIJDpT0_EEE4typeEOS4_
DA:113,0
DA:113,0
DA:160,0
DA:160,0
DA:160,0
DA:160,0
DA:160,0
DA:163,669
DA:163,0
DA:195,0
DA:195,0
DA:195,0
DA:195,0
DA:198,669
DA:198,0
DA:334,0
DA:334,0
DA:334,0
DA:1309,0
DA:1310,0
DA:1309,0
DA:1310,0
DA:1309,0
DA:1310,0
DA:1309,0
DA:1310,0
DA:1309,0
DA:1310,0
DA:1309,0
DA:1310,0
DA:1309,0
DA:1310,0
DA:1314,669
DA:1315,669
DA:1314,0
DA:1315,0
DA:1320,0
DA:1321,0
DA:1320,0
DA:1321,0
DA:1320,0
DA:1321,0
DA:1320,0
DA:1321,0
DA:1320,0
DA:1321,0
DA:1320,0
DA:1321,0
DA:1320,0
DA:1321,0
DA:1326,669
DA:1327,669
DA:1326,0
DA:1327,0
DA:1332,0
DA:1335,0
DA:1332,0
DA:1335,0
DA:1332,0
DA:1335,0
end_of_record
SF:/usr/local/include/gtest/gtest-printers.h
FN:182,_ZN7testing8internal14PointerPrinter10PrintValueI10TenthFrameEEvPT_PSo
FNDA:0,_ZN7testing8internal14PointerPrinter10PrintValueI10TenthFrameEEvPT_PSo
FN:182,_ZN7testing8internal14PointerPrinter10PrintValueI11NormalFrameEEvPT_PSo
FNDA:0,_ZN7testing8internal14PointerPrinter10PrintValueI11NormalFrameEEvPT_PSo
FN:213,_ZN7testing8internal52internal_stream_operator_without_lexical_name_lookup13StreamPrinter10PrintValueImvRSoEEvRKT_PSo
FNDA:0,_ZN7testing8internal52internal_stream_operator_without_lexical_name_lookup13StreamPrinter10PrintValueImvRSoEEvRKT_PSo
FN:213,_ZN7testing8internal52internal_stream_operator_without_lexical_name_lookup13StreamPrinter10PrintValueIivRSoEEvRKT_PSo
FNDA:0,_ZN7testing8internal52internal_stream_operator_without_lexical_name_lookup13StreamPrinter10PrintValueIivRSoEEvRKT_PSo
FN:305,_ZN7testing8internal17PrintWithFallbackIiEEvRKT_PSo
FNDA:0,_ZN7testing8internal17PrintWithFallbackIiEEvRKT_PSo
FN:305,_ZN7testing8internal17PrintWithFallbackImEEvRKT_PSo
FNDA:0,_ZN7testing8internal17PrintWithFallbackImEEvRKT_PSo
FN:305,_ZN7testing8internal17PrintWithFallbackIP10TenthFrameEEvRKT_PSo
FNDA:0,_ZN7testing8internal17PrintWithFallbackIP10TenthFrameEEvRKT_PSo
FN:305,_ZN7testing8internal17PrintWithFallbackIP11NormalFrameEEvRKT_PSo
FNDA:0,_ZN7testing8internal17PrintWithFallbackIP11NormalFrameEEvRKT_PSo
FN:332,_ZN7testing8internal19FormatForComparisonIiiE6FormatB5cxx11ERKi
FNDA:0,_ZN7testing8internal19FormatForComparisonIiiE6FormatB5cxx11ERKi
FN:332,_ZN7testing8internal19FormatForComparisonIimE6FormatB5cxx11ERKi
FNDA:0,_ZN7testing8internal19FormatForComparisonIimE6FormatB5cxx11ERKi
FN:332,_ZN7testing8internal19FormatForComparisonImiE6FormatB5cxx11ERKm
FNDA:0,_ZN7testing8internal19FormatForComparisonImiE6FormatB5cxx11ERKm
FN:332,_ZN7testing8internal19FormatForComparisonIDnP10TenthFrameE6FormatB5cxx11ERKDn
FNDA:0,_ZN7testing8internal19FormatForComparisonIDnP10TenthFrameE6FormatB5cxx11ERKDn
FN:332,_ZN7testing8internal19FormatForComparisonIP10TenthFrameDnE6FormatB5cxx11ERKS3_
FNDA:0,_ZN7testing8internal19FormatForComparisonIP10TenthFrameDnE6FormatB5cxx11ERKS3_
FN:332,_ZN7testing8internal19FormatForComparisonIDnP11NormalFrameE6FormatB5cxx11ERKDn
FNDA:0,_ZN7testing8internal19FormatForComparisonIDnP11NormalFrameE6FormatB5cxx11ERKDn
FN:332,_ZN7testing8internal19FormatForComparisonIP11NormalFrameDnE6FormatB5cxx11ERKS3_
FNDA:0,_ZN7testing8internal19FormatForComparisonIP11NormalFrameDnE6FormatB5cxx11ERKS3_
FN:412,_ZN7testing8internal33FormatForComparisonFailureMessageIP10TenthFrameDnEENSt7__cxx1112basic_stringIcSt11char_traitsIcESaIcEEERKT_RKT0_
FNDA:0,_ZN7testing8internal33FormatForComparisonFailureMessageIP10TenthFrameDnEENSt7__cxx1112basic_stringIcSt11char_traitsIcESaIcEEERKT_RKT0_
FN:412,_ZN7testing8internal33FormatForComparisonFailureMessageIDnP10TenthFrameEENSt7__cxx1112basic_stringIcSt11char_traitsIcESaIcEEERKT_RKT0_
FNDA:0,_ZN7testing8internal33FormatForComparisonFailureMessageIDnP10TenthFrameEENSt7__cxx1112basic_stringIcSt11char_traitsIcESaIcEEERKT_RKT0_
FN:412,_ZN7testing8internal33FormatForComparisonFailureMessageImiEENSt7__cxx1112basic_stringIcSt11char_traitsIcESaIcEEERKT_RKT0_
FNDA:0,_ZN7testing8internal33FormatForComparisonFailureMessageImiEENSt7__cxx1112basic_stringIcSt11char_traitsIcESaIcEEERKT_RKT0_
FN:412,_ZN7testing8internal33FormatForComparisonFailureMessageIimEENSt7__cxx1112basic_stringIcSt11char_traitsIcESaIcEEERKT_RKT0_
FNDA:0,_ZN7testing8internal33FormatForComparisonFailureMessageIimEENSt7__cxx1112basic_stringIcSt11char_traitsIcESaIcEEERKT_RKT0_
FN:412,_ZN7testing8internal33FormatForComparisonFailureMessageIDnP11NormalFrameEENSt7__cxx1112basic_stringIcSt11char_traitsIcESaIcEEERKT_RKT0_
FNDA:0,_ZN7testing8internal33FormatForComparisonFailureMessageIDnP11NormalFrameEENSt7__cxx1112basic_stringIcSt11char_traitsIcESaIcEEERKT_RKT0_
FN:412,_ZN7testing8internal33FormatForComparisonFailureMessageIP11NormalFrameDnEENSt7__cxx1112basic_stringIcSt11char_traitsIcESaIcEEERKT_RKT0_
FNDA:0,_ZN7testing8internal33FormatForComparisonFailureMessageIP11NormalFrameDnEENSt7__cxx1112basic_stringIcSt11char_traitsIcESaIcEEERKT_RKT0_
FN:412,_ZN7testing8internal33FormatForComparisonFailureMessageIiiEENSt7__cxx1112basic_stringIcSt11char_traitsIcESaIcEEERKT_RKT0_
FNDA:0,_ZN7testing8internal33FormatForComparisonFailureMessageIiiEENSt7__cxx1112basic_stringIcSt11char_traitsIcESaIcEEERKT_RKT0_
FN:439,_ZN7testing8internal7PrintToIP11NormalFrameEEvRKT_PSo
FNDA:0,_ZN7testing8internal7PrintToIP11NormalFrameEEvRKT_PSo
FN:439,_ZN7testing8internal7PrintToIP10TenthFrameEEvRKT_PSo
FNDA:0,_ZN7testing8internal7PrintToIP10TenthFrameEEvRKT_PSo
FN:439,_ZN7testing8internal7PrintToImEEvRKT_PSo
FNDA:0,_ZN7testing8internal7PrintToImEEvRKT_PSo
FN:439,_ZN7testing8internal7PrintToIiEEvRKT_PSo
FNDA:0,_ZN7testing8internal7PrintToIiEEvRKT_PSo
FN:593,_ZN7testing8internal7PrintToEDnPSo
FNDA:0,_ZN7testing8internal7PrintToEDnPSo
FN:693,_ZN7testing8internal16UniversalPrinterIiE5PrintERKiPSo
FNDA:0,_ZN7testing8internal16UniversalPrinterIiE5PrintERKiPSo
FN:693,_ZN7testing8internal16UniversalPrinterImE5PrintERKmPSo
FNDA:0,_ZN7testing8internal16UniversalPrinterImE5PrintERKmPSo
FN:693,_ZN7testing8internal16UniversalPrinterIP10TenthFrameE5PrintERKS3_PSo
FNDA:0,_ZN7testing8internal16UniversalPrinterIP10TenthFrameE5PrintERKS3_PSo
FN:693,_ZN7testing8internal16UniversalPrinterIDnE5PrintERKDnPSo
FNDA:0,_ZN7testing8internal16UniversalPrinterIDnE5PrintERKDnPSo
FN:693,_ZN7testing8internal16UniversalPrinterIP11NormalFrameE5PrintERKS3_PSo
FNDA:0,_ZN7testing8internal16UniversalPrinterIP11NormalFrameE5PrintERKS3_PSo
FN:883,_ZN7testing8internal21UniversalTersePrinterIP11NormalFrameE5PrintERKS3_PSo
FNDA:0,_ZN7testing8internal21UniversalTersePrinterIP11NormalFrameE5PrintERKS3_PSo
FN:883,_ZN7testing8internal21UniversalTersePrinterIDnE5PrintERKDnPSo
FNDA:0,_ZN7testing8internal21UniversalTersePrinterIDnE5PrintERKDnPSo
FN:883,_ZN7testing8internal21UniversalTersePrinterIP10TenthFrameE5PrintERKS3_PSo
FNDA:0,_ZN7testing8internal21UniversalTersePrinterIP10TenthFrameE5PrintERKS3_PSo
FN:883,_ZN7testing8internal21UniversalTersePrinterImE5PrintERKmPSo
FNDA:0,_ZN7testing8internal21UniversalTersePrinterImE5PrintERKmPSo
FN:883,_ZN7testing8internal21UniversalTersePrinterIiE5PrintERKiPSo
FNDA:0,_ZN7testing8internal21UniversalTersePrinterIiE5PrintERKiPSo
FN:995,_ZN7testing8internal14UniversalPrintIP11NormalFrameEEvRKT_PSo
FNDA:0,_ZN7testing8internal14UniversalPrintIP11NormalFrameEEvRKT_PSo
FN:995,_ZN7testing8internal14UniversalPrintIiEEvRKT_PSo
FNDA:0,_ZN7testing8internal14UniversalPrintIiEEvRKT_PSo
FN:995,_ZN7testing8internal14UniversalPrintImEEvRKT_PSo
FNDA:0,_ZN7testing8internal14UniversalPrintImEEvRKT_PSo
FN:995,_ZN7testing8internal14UniversalPrintIP10TenthFrameEEvRKT_PSo
FNDA:0,_ZN7testing8internal14UniversalPrintIP10TenthFrameEEvRKT_PSo
FN:995,_ZN7testing8internal14UniversalPrintIDnEEvRKT_PSo
FNDA:0,_ZN7testing8internal14UniversalPrintIDnEEvRKT_PSo
FN:1035,_ZN7testing13PrintToStringIiEENSt7__cxx1112basic_stringIcSt11char_traitsIcESaIcEEERKT_
FNDA:0,_ZN7testing13PrintToStringIiEENSt7__cxx1112basic_stringIcSt11char_traitsIcESaIcEEERKT_
FN:1035,_ZN7testing13PrintToStringIP11NormalFrameEENSt7__cxx1112basic_stringIcSt11char_traitsIcESaIcEEERKT_
FNDA:0,_ZN7testing13PrintToStringIP11NormalFrameEENSt7__cxx1112basic_stringIcSt11char_traitsIcESaIcEEERKT_
FN:1035,_ZN7testing13PrintToStringIDnEENSt7__cxx1112basic_stringIcSt11char_traitsIcESaIcEEERKT_
FNDA:0,_ZN7testing13PrintToStringIDnEENSt7__cxx1112basic_stringIcSt11char_traitsIcESaIcEEERKT_
FN:1035,_ZN7testing13PrintToStringIP10TenthFrameEENSt7__cxx1112basic_stringIcSt11char_traitsIcESaIcEEERKT_
FNDA:0,_ZN7testing13PrintToStringIP10TenthFrameEENSt7__cxx1112basic_stringIcSt11char_traitsIcESaIcEEERKT_
FN:1035,_ZN7testing13PrintToStringImEENSt7__cxx1112basic_stringIcSt11char_traitsIcESaIcEEERKT_
FNDA:0,_ZN7testing13PrintToStringImEENSt7__cxx1112basic_stringIcSt11char_traitsIcESaIcEEERKT_
DA:182,0
DA:183,0
DA:184,0
DA:189,0
DA:191,0
DA:182,0
DA:183,0
DA:184,0
DA:189,0
DA:191,0
DA:213,0
DA:216,0
DA:217,0
DA:213,0
DA:216,0
DA:217,0
DA:305,0
DA:311,0
DA:312,0
DA:305,0
DA:311,0
DA:312,0
DA:305,0
DA:311,0
DA:312,0
DA:305,0
DA:311,0
DA:312,0
DA:332,0
DA:333,0
DA:332,0
DA:333,0
DA:332,0
DA:333,0
DA:332,0
DA:333,0
DA:332,0
DA:333,0
DA:332,0
DA:333,0
DA:332,0
DA:333,0
DA:412,0
DA:414,0
DA:412,0
DA:414,0
DA:412,0
DA:414,0
DA:412,0
DA:414,0
DA:412,0
DA:414,0
DA:412,0
DA:414,0
DA:412,0
DA:414,0
DA:439,0
DA:440,0
DA:441,0
DA:439,0
DA:440,0
DA:441,0
DA:439,0
DA:440,0
DA:441,0
DA:439,0
DA:440,0
DA:441,0
DA:593,0
DA:693,0
DA:702,0
DA:703,0
DA:693,0
DA:702,0
DA:703,0
DA:693,0
DA:702,0
DA:703,0
DA:693,0
DA:702,0
DA:703,0
DA:693,0
DA:702,0
DA:703,0
DA:883,0
DA:884,0
DA:885,0
DA:883,0
DA:884,0
DA:885,0
DA:883,0
DA:884,0
DA:885,0
DA:883,0
DA:884,0
DA:885,0
DA:883,0
DA:884,0
DA:885,0
DA:995,0
DA:999,0
DA:1000,0
DA:995,0
DA:999,0
DA:1000,0
DA:995,0
DA:999,0
DA:1000,0
DA:995,0
DA:999,0
DA:1000,0
DA:995,0
DA:999,0
DA:1000,0
DA:1035,0
DA:1036,0
DA:1037,0
DA:1038,0
DA:1035,0
DA:1036,0
DA:1037,0
DA:1038,0
DA:1035,0
DA:1036,0
DA:1037,0
DA:1038,0
DA:1035,0
DA:1036,0
DA:1037,0
DA:1038,0
DA:1035,0
DA:1036,0
DA:1037,0
DA:1038,0
end_of_record
SF:/usr/local/include/gtest/gtest.h
FN:244,_ZN7testing4Test14SetUpTestSuiteEv
FNDA:0,_ZN7testing4Test14SetUpTestSuiteEv
FN:252,_ZN7testing4Test17TearDownTestSuiteEv
FNDA:0,_ZN7testing4Test17TearDownTestSuiteEv
FN:257,_ZN7testing4Test16TearDownTestCaseEv
FNDA:0,_ZN7testing4Test16TearDownTestCaseEv
FN:258,_ZN7testing4Test13SetUpTestCaseEv
FNDA:0,_ZN7testing4Test13SetUpTestCaseEv
FN:339,_ZN7testing4Test5SetupEv
FNDA:0,_ZN7testing4Test5SetupEv
FN:1338,_ZN7testing8internal18CmpHelperEQFailureIiiEENS_15AssertionResultEPKcS4_RKT_RKT0_
FNDA:0,_ZN7testing8internal18CmpHelperEQFailureIiiEENS_15AssertionResultEPKcS4_RKT_RKT0_
FN:1338,_ZN7testing8internal18CmpHelperEQFailureImiEENS_15AssertionResultEPKcS4_RKT_RKT0_
FNDA:0,_ZN7testing8internal18CmpHelperEQFailureImiEENS_15AssertionResultEPKcS4_RKT_RKT0_
FN:1355,_ZN7testing8internal11CmpHelperEQIiiEENS_15AssertionResultEPKcS4_RKT_RKT0_
FNDA:0,_ZN7testing8internal11CmpHelperEQIiiEENS_15AssertionResultEPKcS4_RKT_RKT0_
FN:1355,_ZN7testing8internal11CmpHelperEQImiEENS_15AssertionResultEPKcS4_RKT_RKT0_
FNDA:0,_ZN7testing8internal11CmpHelperEQImiEENS_15AssertionResultEPKcS4_RKT_RKT0_
FN:1374,_ZN7testing8internal8EqHelper7CompareIiiLPv0EEENS_15AssertionResultEPKcS6_RKT_RKT0_
FNDA:0,_ZN7testing8internal8EqHelper7CompareIiiLPv0EEENS_15AssertionResultEPKcS6_RKT_RKT0_
FN:1374,_ZN7testing8internal8EqHelper7CompareImiLPv0EEENS_15AssertionResultEPKcS6_RKT_RKT0_
FNDA:0,_ZN7testing8internal8EqHelper7CompareImiLPv0EEENS_15AssertionResultEPKcS6_RKT_RKT0_
FN:1407,_ZN7testing8internal18CmpHelperOpFailureIP10TenthFrameDnEENS_15AssertionResultEPKcS6_RKT_RKT0_S6_
FNDA:0,_ZN7testing8internal18CmpHelperOpFailureIP10TenthFrameDnEENS_15AssertionResultEPKcS6_RKT_RKT0_S6_
FN:1407,_ZN7testing8internal18CmpHelperOpFailureIP11NormalFrameDnEENS_15AssertionResultEPKcS6_RKT_RKT0_S6_
FNDA:0,_ZN7testing8internal18CmpHelperOpFailureIP11NormalFrameDnEENS_15AssertionResultEPKcS6_RKT_RKT0_S6_
FN:1436,_ZN7testing8internal11CmpHelperNEIP10TenthFrameDnEENS_15AssertionResultEPKcS6_RKT_RKT0_
FNDA:1,_ZN7testing8internal11CmpHelperNEIP10TenthFrameDnEENS_15AssertionResultEPKcS6_RKT_RKT0_
FN:1436,_ZN7testing8internal11CmpHelperNEIP11NormalFrameDnEENS_15AssertionResultEPKcS6_RKT_RKT0_
FNDA:1,_ZN7testing8internal11CmpHelperNEIP11NormalFrameDnEENS_15AssertionResultEPKcS6_RKT_RKT0_
DA:244,0
DA:252,0
DA:257,0
DA:258,0
DA:339,0
DA:1338,0
DA:1343,0
DA:1338,0
DA:1343,0
DA:1355,0
DA:1358,0
DA:1359,0
DA:1362,0
DA:1355,0
DA:1358,0
DA:1359,0
DA:1362,0
DA:1374,0
DA:1377,0
DA:1374,0
DA:1377,0
DA:1407,0
DA:1411,0
DA:1412,0
DA:1413,0
DA:1407,0
DA:1411,0
DA:1412,0
DA:1413,0
DA:1436,1
DA:1436,1
end_of_record
SF:/usr/include/c++/9/typeinfo
FN:99,_ZNKSt9type_info4nameEv
FNDA:0,_ZNKSt9type_info4nameEv
DA:99,0
DA:100,0
end_of_record
SF:/usr/include/c++/9/ext/type_traits.h
FN:152,_ZN9__gnu_cxx17__is_null_pointerIcEEbPT_
FNDA:0,_ZN9__gnu_cxx17__is_null_pointerIcEEbPT_
FN:152,_ZN9__gnu_cxx17__is_null_pointerIKcEEbPT_
FNDA:0,_ZN9__gnu_cxx17__is_null_pointerIKcEEbPT_
DA:152,0
DA:153,0
DA:152,0
DA:153,0
end_of_record
SF:/usr/include/c++/9/bits/stl_construct.h
FN:117,_ZNSt12_Destroy_auxILb1EE9__destroyIPP9FrameTypeEEvT_S5_
FNDA:0,_ZNSt12_Destroy_auxILb1EE9__destroyIPP9FrameTypeEEvT_S5_
FN:127,_ZSt8_DestroyIPP9FrameTypeEvT_S3_
FNDA:0,_ZSt8_DestroyIPP9FrameTypeEvT_S3_
FN:203,_ZSt8_DestroyIPP9FrameTypeS1_EvT_S3_RSaIT0_E
FNDA:0,_ZSt8_DestroyIPP9FrameTypeS1_EvT_S3_RSaIT0_E
DA:117,0
DA:127,0
DA:137,0
DA:138,0
DA:203,0
DA:206,0
DA:207,0
end_of_record
SF:/usr/include/c++/9/iostream
end_of_record
SF:/usr/include/c++/9/ext/new_allocator.h
FN:80,_ZN9__gnu_cxx13new_allocatorIP9FrameTypeEC2Ev
FNDA:0,_ZN9__gnu_cxx13new_allocatorIP9FrameTypeEC2Ev
FN:80,_ZN9__gnu_cxx13new_allocatorIcEC2Ev
FNDA:0,_ZN9__gnu_cxx13new_allocatorIcEC2Ev
FN:83,_ZN9__gnu_cxx13new_allocatorIcEC2ERKS1_
FNDA:0,_ZN9__gnu_cxx13new_allocatorIcEC2ERKS1_
FN:89,_ZN9__gnu_cxx13new_allocatorIP9FrameTypeED2Ev
FNDA:0,_ZN9__gnu_cxx13new_allocatorIP9FrameTypeED2Ev
FN:89,_ZN9__gnu_cxx13new_allocatorIcED2Ev
FNDA:0,_ZN9__gnu_cxx13new_allocatorIcED2Ev
FN:102,_ZN9__gnu_cxx13new_allocatorIcE8allocateEmPKv
FNDA:0,_ZN9__gnu_cxx13new_allocatorIcE8allocateEmPKv
FN:119,_ZN9__gnu_cxx13new_allocatorIP9FrameTypeE10deallocateEPS2_m
FNDA:0,_ZN9__gnu_cxx13new_allocatorIP9FrameTypeE10deallocateEPS2_m
FN:119,_ZN9__gnu_cxx13new_allocatorIcE10deallocateEPcm
FNDA:0,_ZN9__gnu_cxx13new_allocatorIcE10deallocateEPcm
FN:132,_ZNK9__gnu_cxx13new_allocatorIcE8max_sizeEv
FNDA:0,_ZNK9__gnu_cxx13new_allocatorIcE8max_sizeEv
DA:80,0
DA:80,0
DA:83,0
DA:89,0
DA:89,0
DA:102,0
DA:104,0
DA:105,0
DA:114,0
DA:119,0
DA:128,0
DA:119,0
DA:128,0
DA:132,0
DA:135,0
end_of_record
SF:/usr/include/c++/9/bits/alloc_traits.h
FN:442,_ZNSt16allocator_traitsISaIcEE8allocateERS0_m
FNDA:0,_ZNSt16allocator_traitsISaIcEE8allocateERS0_m
FN:468,_ZNSt16allocator_traitsISaIP9FrameTypeEE10deallocateERS2_PS1_m
FNDA:0,_ZNSt16allocator_traitsISaIP9FrameTypeEE10deallocateERS2_PS1_m
FN:468,_ZNSt16allocator_traitsISaIcEE10deallocateERS0_Pcm
FNDA:0,_ZNSt16allocator_traitsISaIcEE10deallocateERS0_Pcm
FN:504,_ZNSt16allocator_traitsISaIcEE8max_sizeERKS0_
FNDA:0,_ZNSt16allocator_traitsISaIcEE8max_sizeERKS0_
FN:513,_ZNSt16allocator_traitsISaIcEE37select_on_container_copy_constructionERKS0_
FNDA:0,_ZNSt16allocator_traitsISaIcEE37select_on_container_copy_constructionERKS0_
DA:442,0
DA:443,0
DA:468,0
DA:469,0
DA:468,0
DA:469,0
DA:504,0
DA:505,0
DA:513,0
DA:514,0
end_of_record
SF:/usr/include/c++/9/bits/stl_algobase.h
FN:198,_ZSt3minImERKT_S2_S2_
FNDA:0,_ZSt3minImERKT_S2_S2_
DA:198,0
DA:203,0
DA:204,0
DA:205,0
end_of_record
SF:/usr/include/c++/9/bits/stl_iterator_base_types.h
FN:205,_ZSt19__iterator_categoryIPcENSt15iterator_traitsIT_E17iterator_categoryERKS2_
FNDA:0,_ZSt19__iterator_categoryIPcENSt15iterator_traitsIT_E17iterator_categoryERKS2_
FN:205,_ZSt19__iterator_categoryIPKcENSt15iterator_traitsIT_E17iterator_categoryERKS3_
FNDA:0,_ZSt19__iterator_categoryIPKcENSt15iterator_traitsIT_E17iterator_categoryERKS3_
DA:205,0
DA:206,0
DA:205,0
DA:206,0
end_of_record
SF:/usr/include/c++/9/utility
FN:179,_ZNSt10__pair_getILm0EE10__move_getIiiEEOT_OSt4pairIS2_T0_E
FNDA:0,_ZNSt10__pair_getILm0EE10__move_getIiiEEOT_OSt4pairIS2_T0_E
FN:203,_ZNSt10__pair_getILm1EE10__move_getIiiEEOT0_OSt4pairIT_S2_E
FNDA:0,_ZNSt10__pair_getILm1EE10__move_getIiiEEOT0_OSt4pairIT_S2_E
FN:224,_ZSt3getILm1EiiEONSt13tuple_elementIXT_ESt4pairIT0_T1_EE4typeEOS4_
FNDA:0,_ZSt3getILm1EiiEONSt13tuple_elementIXT_ESt4pairIT0_T1_EE4typeEOS4_
FN:224,_ZSt3getILm0EiiEONSt13tuple_elementIXT_ESt4pairIT0_T1_EE4typeEOS4_
FNDA:0,_ZSt3getILm0EiiEONSt13tuple_elementIXT_ESt4pairIT0_T1_EE4typeEOS4_
DA:179,0
DA:180,0
DA:203,0
DA:204,0
DA:224,0
DA:225,0
DA:224,0
DA:225,0
end_of_record
SF:/usr/include/c++/9/bits/allocator.h
FN:137,_ZNSaIP9FrameTypeEC2Ev
FNDA:0,_ZNSaIP9FrameTypeEC2Ev
FN:152,_ZNSaIP9FrameTypeED2Ev
FNDA:0,_ZNSaIP9FrameTypeED2Ev
DA:137,0
DA:152,0
end_of_record
SF:/home/shiv/demo/gtest/bowlinggame/unit_testing/FrameFactoryTest.cpp
FN:13,_ZN16FrameFactoryTestC2Ev
FNDA:5,_ZN16FrameFactoryTestC2Ev
FN:18,_ZN16FrameFactoryTestD2Ev
FNDA:5,_ZN16FrameFactoryTestD2Ev
FN:18,_ZN16FrameFactoryTestD0Ev
FNDA:0,_ZN16FrameFactoryTestD0Ev
FN:23,_ZN16FrameFactoryTest5SetUpEv
FNDA:5,_ZN16FrameFactoryTest5SetUpEv
FN:28,_ZN16FrameFactoryTest8TearDownEv
FNDA:5,_ZN16FrameFactoryTest8TearDownEv
FN:38,_ZN43FrameFactoryTest_TestCreateNormalFrame_TestC2Ev
FNDA:1,_ZN43FrameFactoryTest_TestCreateNormalFrame_TestC2Ev
FN:38,_ZN43FrameFactoryTest_TestCreateNormalFrame_TestD0Ev
FNDA:1,_ZN43FrameFactoryTest_TestCreateNormalFrame_TestD0Ev
FN:38,_ZN43FrameFactoryTest_TestCreateNormalFrame_TestD2Ev
FNDA:1,_ZN43FrameFactoryTest_TestCreateNormalFrame_TestD2Ev
FN:38,_ZN43FrameFactoryTest_TestCreateNormalFrame_Test8TestBodyEv
FNDA:1,_ZN43FrameFactoryTest_TestCreateNormalFrame_Test8TestBodyEv
FN:55,_ZN42FrameFactoryTest_TestCreateTenthFrame_TestC2Ev
FNDA:1,_ZN42FrameFactoryTest_TestCreateTenthFrame_TestC2Ev
FN:55,_ZN42FrameFactoryTest_TestCreateTenthFrame_Test8TestBodyEv
FNDA:1,_ZN42FrameFactoryTest_TestCreateTenthFrame_Test8TestBodyEv
FN:55,_ZN42FrameFactoryTest_TestCreateTenthFrame_TestD2Ev
FNDA:1,_ZN42FrameFactoryTest_TestCreateTenthFrame_TestD2Ev
FN:55,_ZN42FrameFactoryTest_TestCreateTenthFrame_TestD0Ev
FNDA:1,_ZN42FrameFactoryTest_TestCreateTenthFrame_TestD0Ev
FN:72,_ZN44FrameFactoryTest_TestCreateInvalidFrame_Test8TestBodyEv
FNDA:1,_ZN44FrameFactoryTest_TestCreateInvalidFrame_Test8TestBodyEv
FN:72,_ZN44FrameFactoryTest_TestCreateInvalidFrame_TestD2Ev
FNDA:1,_ZN44FrameFactoryTest_TestCreateInvalidFrame_TestD2Ev
FN:72,_ZN44FrameFactoryTest_TestCreateInvalidFrame_TestD0Ev
FNDA:1,_ZN44FrameFactoryTest_TestCreateInvalidFrame_TestD0Ev
FN:72,_ZN44FrameFactoryTest_TestCreateInvalidFrame_TestC2Ev
FNDA:1,_ZN44FrameFactoryTest_TestCreateInvalidFrame_TestC2Ev
FN:78,_ZN55FrameFactoryTest_TestCreateAllFramesWithPinValue10_TestD0Ev
FNDA:1,_ZN55FrameFactoryTest_TestCreateAllFramesWithPinValue10_TestD0Ev
FN:78,_ZN55FrameFactoryTest_TestCreateAllFramesWithPinValue10_TestD2Ev
FNDA:1,_ZN55FrameFactoryTest_TestCreateAllFramesWithPinValue10_TestD2Ev
FN:78,_ZN55FrameFactoryTest_TestCreateAllFramesWithPinValue10_Test8TestBodyEv
FNDA:1,_ZN55FrameFactoryTest_TestCreateAllFramesWithPinValue10_Test8TestBodyEv
FN:78,_ZN55FrameFactoryTest_TestCreateAllFramesWithPinValue10_TestC2Ev
FNDA:1,_ZN55FrameFactoryTest_TestCreateAllFramesWithPinValue10_TestC2Ev
FN:87,_ZN54FrameFactoryTest_TestCreateAllFramesWithPinValue0_TestD0Ev
FNDA:1,_ZN54FrameFactoryTest_TestCreateAllFramesWithPinValue0_TestD0Ev
FN:87,_ZN54FrameFactoryTest_TestCreateAllFramesWithPinValue0_TestD2Ev
FNDA:1,_ZN54FrameFactoryTest_TestCreateAllFramesWithPinValue0_TestD2Ev
FN:87,_ZN54FrameFactoryTest_TestCreateAllFramesWithPinValue0_Test8TestBodyEv
FNDA:1,_ZN54FrameFactoryTest_TestCreateAllFramesWithPinValue0_Test8TestBodyEv
FN:87,_ZN54FrameFactoryTest_TestCreateAllFramesWithPinValue0_TestC2Ev
FNDA:1,_ZN54FrameFactoryTest_TestCreateAllFramesWithPinValue0_TestC2Ev
DA:13,5
DA:15,5
DA:16,5
DA:18,0
DA:21,0
DA:18,5
DA:19,5
DA:20,5
DA:21,5
DA:23,5
DA:25,5
DA:26,5
DA:28,5
DA:30,5
DA:31,5
DA:32,5
DA:38,1
DA:38,1
DA:38,1
DA:38,1
DA:39,1
DA:40,1
DA:41,1
DA:42,1
DA:44,1
DA:45,1
DA:46,1
DA:48,1
DA:49,1
DA:50,1
DA:51,1
DA:55,1
DA:55,1
DA:55,1
DA:55,1
DA:56,1
DA:57,1
DA:58,1
DA:59,1
DA:61,1
DA:62,1
DA:63,1
DA:65,1
DA:66,1
DA:67,1
DA:68,1
DA:72,1
DA:72,1
DA:72,1
DA:72,1
DA:73,4
DA:74,1
DA:78,1
DA:78,1
DA:78,1
DA:78,1
DA:79,10
DA:80,9
DA:82,1
DA:83,1
DA:87,1
DA:87,1
DA:87,1
DA:87,1
DA:88,10
DA:89,9
DA:91,1
DA:92,1
end_of_record
SF:/usr/include/c++/9/bits/move.h
FN:47,_ZSt11__addressofIKcEPT_RS1_
FNDA:0,_ZSt11__addressofIKcEPT_RS1_
FN:47,_ZSt11__addressofIcEPT_RS0_
FNDA:0,_ZSt11__addressofIcEPT_RS0_
FN:74,_ZSt7forwardIOiEOT_RNSt16remove_referenceIS1_E4typeE
FNDA:0,_ZSt7forwardIOiEOT_RNSt16remove_referenceIS1_E4typeE
FN:74,_ZSt7forwardIiEOT_RNSt16remove_referenceIS0_E4typeE
FNDA:0,_ZSt7forwardIiEOT_RNSt16remove_referenceIS0_E4typeE
FN:99,_ZSt4moveIRPNSt7__cxx1112basic_stringIcSt11char_traitsIcESaIcEEEEONSt16remove_referenceIT_E4typeEOS9_
FNDA:0,_ZSt4moveIRPNSt7__cxx1112basic_stringIcSt11char_traitsIcESaIcEEEEONSt16remove_referenceIT_E4typeEOS9_
FN:99,_ZSt4moveIRPNSt7__cxx1118basic_stringstreamIcSt11char_traitsIcESaIcEEEEONSt16remove_referenceIT_E4typeEOS9_
FNDA:0,_ZSt4moveIRPNSt7__cxx1118basic_stringstreamIcSt11char_traitsIcESaIcEEEEONSt16remove_referenceIT_E4typeEOS9_
FN:99,_ZSt4moveIRSaIcEEONSt16remove_referenceIT_E4typeEOS3_
FNDA:0,_ZSt4moveIRSaIcEEONSt16remove_referenceIT_E4typeEOS3_
FN:99,_ZSt4moveIRSt4pairIiiEEONSt16remove_referenceIT_E4typeEOS4_
FNDA:0,_ZSt4moveIRSt4pairIiiEEONSt16remove_referenceIT_E4typeEOS4_
FN:138,_ZSt9addressofIKcEPT_RS1_
FNDA:0,_ZSt9addressofIKcEPT_RS1_
FN:138,_ZSt9addressofIcEPT_RS0_
FNDA:0,_ZSt9addressofIcEPT_RS0_
FN:182,_ZSt4swapIPNSt7__cxx1112basic_stringIcSt11char_traitsIcESaIcEEEENSt9enable_ifIXsrSt6__and_IJSt6__not_ISt15__is_tuple_likeIT_EESt21is_move_constructibleISB_ESt18is_move_assignableISB_EEE5valueEvE4typeERSB_SL_
FNDA:0,_ZSt4swapIPNSt7__cxx1112basic_stringIcSt11char_traitsIcESaIcEEEENSt9enable_ifIXsrSt6__and_IJSt6__not_ISt15__is_tuple_likeIT_EESt21is_move_constructibleISB_ESt18is_move_assignableISB_EEE5valueEvE4typeERSB_SL_
DA:47,0
DA:48,0
DA:47,0
DA:48,0
DA:74,0
DA:75,0
DA:74,0
DA:75,0
DA:99,0
DA:100,0
DA:99,0
DA:100,0
DA:99,0
DA:100,0
DA:99,0
DA:100,0
DA:138,0
DA:139,0
DA:138,0
DA:139,0
DA:182,0
DA:193,0
DA:194,0
DA:195,0
DA:196,0
end_of_record
SF:/usr/local/include/gtest/internal/gtest-port.h
FN:967,_ZN7testing8internal8GTestLog9GetStreamEv
FNDA:0,_ZN7testing8internal8GTestLog9GetStreamEv
DA:967,0
end_of_record
SF:/usr/include/c++/9/bits/stl_iterator_base_funcs.h
FN:98,_ZSt10__distanceIPcENSt15iterator_traitsIT_E15difference_typeES2_S2_St26random_access_iterator_tag
FNDA:0,_ZSt10__distanceIPcENSt15iterator_traitsIT_E15difference_typeES2_S2_St26random_access_iterator_tag
FN:98,_ZSt10__distanceIPKcENSt15iterator_traitsIT_E15difference_typeES3_S3_St26random_access_iterator_tag
FNDA:0,_ZSt10__distanceIPKcENSt15iterator_traitsIT_E15difference_typeES3_S3_St26random_access_iterator_tag
FN:138,_ZSt8distanceIPcENSt15iterator_traitsIT_E15difference_typeES2_S2_
FNDA:0,_ZSt8distanceIPcENSt15iterator_traitsIT_E15difference_typeES2_S2_
FN:138,_ZSt8distanceIPKcENSt15iterator_traitsIT_E15difference_typeES3_S3_
FNDA:0,_ZSt8distanceIPKcENSt15iterator_traitsIT_E15difference_typeES3_S3_
DA:98,0
DA:104,0
DA:98,0
DA:104,0
DA:138,0
DA:141,0
DA:142,0
DA:138,0
DA:141,0
DA:142,0
end_of_record
SF:/usr/include/c++/9/bits/unique_ptr.h
FN:75,_ZNKSt14default_deleteINSt7__cxx1118basic_stringstreamIcSt11char_traitsIcESaIcEEEEclEPS5_
FNDA:0,_ZNKSt14default_deleteINSt7__cxx1118basic_stringstreamIcSt11char_traitsIcESaIcEEEEclEPS5_
FN:75,_ZNKSt14default_deleteINSt7__cxx1112basic_stringIcSt11char_traitsIcESaIcEEEEclEPS5_
FNDA:0,_ZNKSt14default_deleteINSt7__cxx1112basic_stringIcSt11char_traitsIcESaIcEEEEclEPS5_
FN:153,_ZNSt15__uniq_ptr_implINSt7__cxx1118basic_stringstreamIcSt11char_traitsIcESaIcEEESt14default_deleteIS5_EE6_M_ptrEv
FNDA:0,_ZNSt15__uniq_ptr_implINSt7__cxx1118basic_stringstreamIcSt11char_traitsIcESaIcEEESt14default_deleteIS5_EE6_M_ptrEv
FN:153,_ZNSt15__uniq_ptr_implINSt7__cxx1112basic_stringIcSt11char_traitsIcESaIcEEESt14default_deleteIS5_EE6_M_ptrEv
FNDA:0,_ZNSt15__uniq_ptr_implINSt7__cxx1112basic_stringIcSt11char_traitsIcESaIcEEESt14default_deleteIS5_EE6_M_ptrEv
FN:154,_ZNKSt15__uniq_ptr_implINSt7__cxx1118basic_stringstreamIcSt11char_traitsIcESaIcEEESt14default_deleteIS5_EE6_M_ptrEv
FNDA:669,_ZNKSt15__uniq_ptr_implINSt7__cxx1118basic_stringstreamIcSt11char_traitsIcESaIcEEESt14default_deleteIS5_EE6_M_ptrEv
FN:154,_ZNKSt15__uniq_ptr_implINSt7__cxx1112basic_stringIcSt11char_traitsIcESaIcEEESt14default_deleteIS5_EE6_M_ptrEv
FNDA:0,_ZNKSt15__uniq_ptr_implINSt7__cxx1112basic_stringIcSt11char_traitsIcESaIcEEESt14default_deleteIS5_EE6_M_ptrEv
FN:155,_ZNSt15__uniq_ptr_implINSt7__cxx1118basic_stringstreamIcSt11char_traitsIcESaIcEEESt14default_deleteIS5_EE10_M_deleterEv
FNDA:0,_ZNSt15__uniq_ptr_implINSt7__cxx1118basic_stringstreamIcSt11char_traitsIcESaIcEEESt14default_deleteIS5_EE10_M_deleterEv
FN:155,_ZNSt15__uniq_ptr_implINSt7__cxx1112basic_stringIcSt11char_traitsIcESaIcEEESt14default_deleteIS5_EE10_M_deleterEv
FNDA:0,_ZNSt15__uniq_ptr_implINSt7__cxx1112basic_stringIcSt11char_traitsIcESaIcEEESt14default_deleteIS5_EE10_M_deleterEv
FN:286,_ZNSt10unique_ptrINSt7__cxx1112basic_stringIcSt11char_traitsIcESaIcEEESt14default_deleteIS5_EED2Ev
FNDA:0,_ZNSt10unique_ptrINSt7__cxx1112basic_stringIcSt11char_traitsIcESaIcEEESt14default_deleteIS5_EED2Ev
FN:286,_ZNSt10unique_ptrINSt7__cxx1118basic_stringstreamIcSt11char_traitsIcESaIcEEESt14default_deleteIS5_EED2Ev
FNDA:0,_ZNSt10unique_ptrINSt7__cxx1118basic_stringstreamIcSt11char_traitsIcESaIcEEESt14default_deleteIS5_EED2Ev
FN:344,_ZNKSt10unique_ptrINSt7__cxx1118basic_stringstreamIcSt11char_traitsIcESaIcEEESt14default_deleteIS5_EEdeEv
FNDA:584,_ZNKSt10unique_ptrINSt7__cxx1118basic_stringstreamIcSt11char_traitsIcESaIcEEESt14default_deleteIS5_EEdeEv
FN:352,_ZNKSt10unique_ptrINSt7__cxx1112basic_stringIcSt11char_traitsIcESaIcEEESt14default_deleteIS5_EEptEv
FNDA:0,_ZNKSt10unique_ptrINSt7__cxx1112basic_stringIcSt11char_traitsIcESaIcEEESt14default_deleteIS5_EEptEv
FN:360,_ZNKSt10unique_ptrINSt7__cxx1118basic_stringstreamIcSt11char_traitsIcESaIcEEESt14default_deleteIS5_EE3getEv
FNDA:669,_ZNKSt10unique_ptrINSt7__cxx1118basic_stringstreamIcSt11char_traitsIcESaIcEEESt14default_deleteIS5_EE3getEv
FN:360,_ZNKSt10unique_ptrINSt7__cxx1112basic_stringIcSt11char_traitsIcESaIcEEESt14default_deleteIS5_EE3getEv
FNDA:0,_ZNKSt10unique_ptrINSt7__cxx1112basic_stringIcSt11char_traitsIcESaIcEEESt14default_deleteIS5_EE3getEv
FN:365,_ZNSt10unique_ptrINSt7__cxx1112basic_stringIcSt11char_traitsIcESaIcEEESt14default_deleteIS5_EE11get_deleterEv
FNDA:0,_ZNSt10unique_ptrINSt7__cxx1112basic_stringIcSt11char_traitsIcESaIcEEESt14default_deleteIS5_EE11get_deleterEv
FN:365,_ZNSt10unique_ptrINSt7__cxx1118basic_stringstreamIcSt11char_traitsIcESaIcEEESt14default_deleteIS5_EE11get_deleterEv
FNDA:0,_ZNSt10unique_ptrINSt7__cxx1118basic_stringstreamIcSt11char_traitsIcESaIcEEESt14default_deleteIS5_EE11get_deleterEv
FN:395,_ZNSt10unique_ptrINSt7__cxx1112basic_stringIcSt11char_traitsIcESaIcEEESt14default_deleteIS5_EE5resetEPS5_
FNDA:0,_ZNSt10unique_ptrINSt7__cxx1112basic_stringIcSt11char_traitsIcESaIcEEESt14default_deleteIS5_EE5resetEPS5_
DA:75,0
DA:81,0
DA:82,0
DA:75,0
DA:81,0
DA:82,0
DA:153,0
DA:153,0
DA:154,669
DA:154,0
DA:155,0
DA:155,0
DA:286,0
DA:290,0
DA:291,0
DA:292,0
DA:293,0
DA:294,0
DA:286,0
DA:290,0
DA:291,0
DA:292,0
DA:293,0
DA:294,0
DA:344,584
DA:347,584
DA:352,0
DA:355,0
DA:360,669
DA:361,669
DA:360,0
DA:361,0
DA:365,0
DA:366,0
DA:365,0
DA:366,0
DA:395,0
DA:400,0
DA:401,0
DA:402,0
DA:403,0
end_of_record
SF:/usr/local/include/gtest/internal/gtest-type-util.h
FN:57,_ZN7testing8internal31CanonicalizeForStdLibVersioningENSt7__cxx1112basic_stringIcSt11char_traitsIcESaIcEEE
FNDA:0,_ZN7testing8internal31CanonicalizeForStdLibVersioningENSt7__cxx1112basic_stringIcSt11char_traitsIcESaIcEEE
FN:71,_ZN7testing8internal11GetTypeNameB5cxx11ERKSt9type_info
FNDA:0,_ZN7testing8internal11GetTypeNameB5cxx11ERKSt9type_info
DA:57,0
DA:59,0
DA:60,0
DA:61,0
DA:63,0
DA:66,0
DA:71,0
DA:72,0
DA:74,0
DA:80,0
DA:81,0
DA:82,0
DA:83,0
end_of_record
SF:/usr/include/c++/9/ext/alloc_traits.h
FN:97,_ZN9__gnu_cxx14__alloc_traitsISaIcEcE17_S_select_on_copyERKS1_
FNDA:0,_ZN9__gnu_cxx14__alloc_traitsISaIcEcE17_S_select_on_copyERKS1_
DA:97,0
DA:98,0
end_of_record
SF:/usr/local/include/gtest/gtest-message.h
FN:114,_ZN7testing7MessagelsIA5_cEERS0_RKT_
FNDA:0,_ZN7testing7MessagelsIA5_cEERS0_RKT_
FN:114,_ZN7testing7MessagelsINSt7__cxx1112basic_stringIcSt11char_traitsIcESaIcEEEEERS0_RKT_
FNDA:0,_ZN7testing7MessagelsINSt7__cxx1112basic_stringIcSt11char_traitsIcESaIcEEEEERS0_RKT_
FN:114,_ZN7testing7MessagelsIA3_cEERS0_RKT_
FNDA:0,_ZN7testing7MessagelsIA3_cEERS0_RKT_
FN:114,_ZN7testing7MessagelsIA12_cEERS0_RKT_
FNDA:0,_ZN7testing7MessagelsIA12_cEERS0_RKT_
FN:148,_ZN7testing7MessagelsIKcEERS0_RKPT_
FNDA:21,_ZN7testing7MessagelsIKcEERS0_RKPT_
DA:114,0
DA:130,0
DA:131,0
DA:114,0
DA:130,0
DA:131,0
DA:114,0
DA:130,0
DA:131,0
DA:114,0
DA:130,0
DA:131,0
DA:148,21
DA:149,21
DA:150,0
DA:152,21
DA:154,21
end_of_record
TN:
SF:/usr/include/c++/9/bits/unique_ptr.h
FN:75,_ZNKSt14default_deleteINSt7__cxx1112basic_stringIcSt11char_traitsIcESaIcEEEEclEPS5_
FNDA:0,_ZNKSt14default_deleteINSt7__cxx1112basic_stringIcSt11char_traitsIcESaIcEEEEclEPS5_
FN:75,_ZNKSt14default_deleteINSt7__cxx1118basic_stringstreamIcSt11char_traitsIcESaIcEEEEclEPS5_
FNDA:85,_ZNKSt14default_deleteINSt7__cxx1118basic_stringstreamIcSt11char_traitsIcESaIcEEEEclEPS5_
FN:153,_ZNSt15__uniq_ptr_implINSt7__cxx1112basic_stringIcSt11char_traitsIcESaIcEEESt14default_deleteIS5_EE6_M_ptrEv
FNDA:42,_ZNSt15__uniq_ptr_implINSt7__cxx1112basic_stringIcSt11char_traitsIcESaIcEEESt14default_deleteIS5_EE6_M_ptrEv
FN:153,_ZNSt15__uniq_ptr_implINSt7__cxx1118basic_stringstreamIcSt11char_traitsIcESaIcEEESt14default_deleteIS5_EE6_M_ptrEv
FNDA:170,_ZNSt15__uniq_ptr_implINSt7__cxx1118basic_stringstreamIcSt11char_traitsIcESaIcEEESt14default_deleteIS5_EE6_M_ptrEv
FN:154,_ZNKSt15__uniq_ptr_implINSt7__cxx1112basic_stringIcSt11char_traitsIcESaIcEEESt14default_deleteIS5_EE6_M_ptrEv
FNDA:0,_ZNKSt15__uniq_ptr_implINSt7__cxx1112basic_stringIcSt11char_traitsIcESaIcEEESt14default_deleteIS5_EE6_M_ptrEv
FN:155,_ZNSt15__uniq_ptr_implINSt7__cxx1112basic_stringIcSt11char_traitsIcESaIcEEESt14default_deleteIS5_EE10_M_deleterEv
FNDA:0,_ZNSt15__uniq_ptr_implINSt7__cxx1112basic_stringIcSt11char_traitsIcESaIcEEESt14default_deleteIS5_EE10_M_deleterEv
FN:155,_ZNSt15__uniq_ptr_implINSt7__cxx1118basic_stringstreamIcSt11char_traitsIcESaIcEEESt14default_deleteIS5_EE10_M_deleterEv
FNDA:85,_ZNSt15__uniq_ptr_implINSt7__cxx1118basic_stringstreamIcSt11char_traitsIcESaIcEEESt14default_deleteIS5_EE10_M_deleterEv
FN:286,_ZNSt10unique_ptrINSt7__cxx1112basic_stringIcSt11char_traitsIcESaIcEEESt14default_deleteIS5_EED2Ev
FNDA:42,_ZNSt10unique_ptrINSt7__cxx1112basic_stringIcSt11char_traitsIcESaIcEEESt14default_deleteIS5_EED2Ev
FN:286,_ZNSt10unique_ptrINSt7__cxx1118basic_stringstreamIcSt11char_traitsIcESaIcEEESt14default_deleteIS5_EED2Ev
FNDA:85,_ZNSt10unique_ptrINSt7__cxx1118basic_stringstreamIcSt11char_traitsIcESaIcEEESt14default_deleteIS5_EED2Ev
FN:352,_ZNKSt10unique_ptrINSt7__cxx1112basic_stringIcSt11char_traitsIcESaIcEEESt14default_deleteIS5_EEptEv
FNDA:0,_ZNKSt10unique_ptrINSt7__cxx1112basic_stringIcSt11char_traitsIcESaIcEEESt14default_deleteIS5_EEptEv
FN:360,_ZNKSt10unique_ptrINSt7__cxx1112basic_stringIcSt11char_traitsIcESaIcEEESt14default_deleteIS5_EE3getEv
FNDA:0,_ZNKSt10unique_ptrINSt7__cxx1112basic_stringIcSt11char_traitsIcESaIcEEESt14default_deleteIS5_EE3getEv
FN:365,_ZNSt10unique_ptrINSt7__cxx1112basic_stringIcSt11char_traitsIcESaIcEEESt14default_deleteIS5_EE11get_deleterEv
FNDA:0,_ZNSt10unique_ptrINSt7__cxx1112basic_stringIcSt11char_traitsIcESaIcEEESt14default_deleteIS5_EE11get_deleterEv
FN:365,_ZNSt10unique_ptrINSt7__cxx1118basic_stringstreamIcSt11char_traitsIcESaIcEEESt14default_deleteIS5_EE11get_deleterEv
FNDA:85,_ZNSt10unique_ptrINSt7__cxx1118basic_stringstreamIcSt11char_traitsIcESaIcEEESt14default_deleteIS5_EE11get_deleterEv
DA:75,0
DA:81,0
DA:82,0
DA:75,85
DA:81,85
DA:82,85
DA:153,42
DA:153,170
DA:154,0
DA:155,0
DA:155,85
DA:286,42
DA:290,42
DA:291,42
DA:292,0
DA:293,42
DA:294,42
DA:286,85
DA:290,85
DA:291,85
DA:292,85
DA:293,85
DA:294,85
DA:352,0
DA:355,0
DA:360,0
DA:361,0
DA:365,0
DA:366,0
DA:365,85
DA:366,85
end_of_record
SF:/usr/local/include/gtest/internal/gtest-port.h
FN:967,_ZN7testing8internal8GTestLog9GetStreamEv
FNDA:0,_ZN7testing8internal8GTestLog9GetStreamEv
DA:967,0
end_of_record
SF:/usr/include/c++/9/bits/stl_iterator_base_funcs.h
FN:98,_ZSt10__distanceIPcENSt15iterator_traitsIT_E15difference_typeES2_S2_St26random_access_iterator_tag
FNDA:275,_ZSt10__distanceIPcENSt15iterator_traitsIT_E15difference_typeES2_S2_St26random_access_iterator_tag
FN:98,_ZSt10__distanceIPKcENSt15iterator_traitsIT_E15difference_typeES3_S3_St26random_access_iterator_tag
FNDA:0,_ZSt10__distanceIPKcENSt15iterator_traitsIT_E15difference_typeES3_S3_St26random_access_iterator_tag
FN:138,_ZSt8distanceIPcENSt15iterator_traitsIT_E15difference_typeES2_S2_
FNDA:275,_ZSt8distanceIPcENSt15iterator_traitsIT_E15difference_typeES2_S2_
FN:138,_ZSt8distanceIPKcENSt15iterator_traitsIT_E15difference_typeES3_S3_
FNDA:0,_ZSt8distanceIPKcENSt15iterator_traitsIT_E15difference_typeES3_S3_
DA:98,275
DA:104,275
DA:98,0
DA:104,0
DA:138,275
DA:141,275
DA:142,550
DA:138,0
DA:141,0
DA:142,0
end_of_record
SF:/usr/include/c++/9/bits/move.h
FN:47,_ZSt11__addressofIKcEPT_RS1_
FNDA:0,_ZSt11__addressofIKcEPT_RS1_
FN:47,_ZSt11__addressofIcEPT_RS0_
FNDA:0,_ZSt11__addressofIcEPT_RS0_
FN:99,_ZSt4moveIRPNSt7__cxx1112basic_stringIcSt11char_traitsIcESaIcEEEEONSt16remove_referenceIT_E4typeEOS9_
FNDA:0,_ZSt4moveIRPNSt7__cxx1112basic_stringIcSt11char_traitsIcESaIcEEEEONSt16remove_referenceIT_E4typeEOS9_
FN:99,_ZSt4moveIRPNSt7__cxx1118basic_stringstreamIcSt11char_traitsIcESaIcEEEEONSt16remove_referenceIT_E4typeEOS9_
FNDA:85,_ZSt4moveIRPNSt7__cxx1118basic_stringstreamIcSt11char_traitsIcESaIcEEEEONSt16remove_referenceIT_E4typeEOS9_
FN:99,_ZSt4moveIRSaIcEEONSt16remove_referenceIT_E4typeEOS3_
FNDA:797,_ZSt4moveIRSaIcEEONSt16remove_referenceIT_E4typeEOS3_
FN:138,_ZSt9addressofIKcEPT_RS1_
FNDA:0,_ZSt9addressofIKcEPT_RS1_
FN:138,_ZSt9addressofIcEPT_RS0_
FNDA:0,_ZSt9addressofIcEPT_RS0_
DA:47,0
DA:48,0
DA:47,0
DA:48,0
DA:99,0
DA:100,0
DA:99,85
DA:100,85
DA:99,797
DA:100,797
DA:138,0
DA:139,0
DA:138,0
DA:139,0
end_of_record
SF:/usr/include/c++/9/bits/allocator.h
FN:137,_ZNSaIP9FrameTypeEC2Ev
FNDA:30,_ZNSaIP9FrameTypeEC2Ev
FN:152,_ZNSaIP9FrameTypeED2Ev
FNDA:30,_ZNSaIP9FrameTypeED2Ev
DA:137,30
DA:152,30
end_of_record
SF:/usr/local/include/gtest/gtest-message.h
end_of_record
SF:/usr/include/c++/9/ext/alloc_traits.h
FN:97,_ZN9__gnu_cxx14__alloc_traitsISaIcEcE17_S_select_on_copyERKS1_
FNDA:275,_ZN9__gnu_cxx14__alloc_traitsISaIcEcE17_S_select_on_copyERKS1_
DA:97,275
DA:98,275
end_of_record
SF:/usr/local/include/gtest/internal/gtest-internal.h
FN:431,_ZN7testing8internal9GetTypeIdI15BowlingGameTestEEPKvv
FNDA:25,_ZN7testing8internal9GetTypeIdI15BowlingGameTestEEPKvv
FN:450,_ZN7testing8internal15TestFactoryBaseD2Ev
FNDA:30,_ZN7testing8internal15TestFactoryBaseD2Ev
FN:450,_ZN7testing8internal15TestFactoryBaseD0Ev
FNDA:0,_ZN7testing8internal15TestFactoryBaseD0Ev
FN:457,_ZN7testing8internal15TestFactoryBaseC2Ev
FNDA:30,_ZN7testing8internal15TestFactoryBaseC2Ev
FN:469,_ZN7testing8internal15TestFactoryImplI34BowlingGameTest_TestgetInput2_TestE10CreateTestEv
FNDA:1,_ZN7testing8internal15TestFactoryImplI34BowlingGameTest_TestgetInput2_TestE10CreateTestEv
FN:469,_ZN7testing8internal15TestFactoryImplI35BowlingGameTest_TestgetInput10_TestE10CreateTestEv
FNDA:1,_ZN7testing8internal15TestFactoryImplI35BowlingGameTest_TestgetInput10_TestE10CreateTestEv
FN:469,_ZN7testing8internal15TestFactoryImplI34BowlingGameTest_TestgetInput9_TestE10CreateTestEv
FNDA:1,_ZN7testing8internal15TestFactoryImplI34BowlingGameTest_TestgetInput9_TestE10CreateTestEv
FN:469,_ZN7testing8internal15TestFactoryImplI34BowlingGameTest_TestgetInput8_TestE10CreateTestEv
FNDA:1,_ZN7testing8internal15TestFactoryImplI34BowlingGameTest_TestgetInput8_TestE10CreateTestEv
FN:469,_ZN7testing8internal15TestFactoryImplI34BowlingGameTest_TestgetInput7_TestE10CreateTestEv
FNDA:1,_ZN7testing8internal15TestFactoryImplI34BowlingGameTest_TestgetInput7_TestE10CreateTestEv
FN:469,_ZN7testing8internal15TestFactoryImplI34BowlingGameTest_TestgetInput6_TestE10CreateTestEv
FNDA:1,_ZN7testing8internal15TestFactoryImplI34BowlingGameTest_TestgetInput6_TestE10CreateTestEv
FN:469,_ZN7testing8internal15TestFactoryImplI34BowlingGameTest_TestgetInput5_TestE10CreateTestEv
FNDA:1,_ZN7testing8internal15TestFactoryImplI34BowlingGameTest_TestgetInput5_TestE10CreateTestEv
FN:469,_ZN7testing8internal15TestFactoryImplI34BowlingGameTest_TestgetInput4_TestE10CreateTestEv
FNDA:1,_ZN7testing8internal15TestFactoryImplI34BowlingGameTest_TestgetInput4_TestE10CreateTestEv
FN:469,_ZN7testing8internal15TestFactoryImplI34BowlingGameTest_TestgetInput3_TestE10CreateTestEv
FNDA:1,_ZN7testing8internal15TestFactoryImplI34BowlingGameTest_TestgetInput3_TestE10CreateTestEv
FN:469,_ZN7testing8internal15TestFactoryImplI33BowlingGameTest_Testgetframe_TestE10CreateTestEv
FNDA:1,_ZN7testing8internal15TestFactoryImplI33BowlingGameTest_Testgetframe_TestE10CreateTestEv
FN:469,_ZN7testing8internal15TestFactoryImplI34BowlingGameTest_TestgetInput1_TestE10CreateTestEv
FNDA:1,_ZN7testing8internal15TestFactoryImplI34BowlingGameTest_TestgetInput1_TestE10CreateTestEv
FN:469,_ZN7testing8internal15TestFactoryImplI45BowlingGameTest_TestCalculateTotalScore5_TestE10CreateTestEv
FNDA:1,_ZN7testing8internal15TestFactoryImplI45BowlingGameTest_TestCalculateTotalScore5_TestE10CreateTestEv
FN:469,_ZN7testing8internal15TestFactoryImplI45BowlingGameTest_TestCalculateTotalScore1_TestE10CreateTestEv
FNDA:1,_ZN7testing8internal15TestFactoryImplI45BowlingGameTest_TestCalculateTotalScore1_TestE10CreateTestEv
FN:469,_ZN7testing8internal15TestFactoryImplI45BowlingGameTest_TestCalculateTotalScore2_TestE10CreateTestEv
FNDA:1,_ZN7testing8internal15TestFactoryImplI45BowlingGameTest_TestCalculateTotalScore2_TestE10CreateTestEv
FN:469,_ZN7testing8internal15TestFactoryImplI45BowlingGameTest_TestCalculateTotalScore3_TestE10CreateTestEv
FNDA:1,_ZN7testing8internal15TestFactoryImplI45BowlingGameTest_TestCalculateTotalScore3_TestE10CreateTestEv
FN:469,_ZN7testing8internal15TestFactoryImplI45BowlingGameTest_TestCalculateTotalScore4_TestE10CreateTestEv
FNDA:1,_ZN7testing8internal15TestFactoryImplI45BowlingGameTest_TestCalculateTotalScore4_TestE10CreateTestEv
FN:469,_ZN7testing8internal15TestFactoryImplI53BowlingGameTest_TestCalculateTotalScoreAllFrame0_TestE10CreateTestEv
FNDA:1,_ZN7testing8internal15TestFactoryImplI53BowlingGameTest_TestCalculateTotalScoreAllFrame0_TestE10CreateTestEv
FN:469,_ZN7testing8internal15TestFactoryImplI45BowlingGameTest_TestCalculateTotalScore6_TestE10CreateTestEv
FNDA:1,_ZN7testing8internal15TestFactoryImplI45BowlingGameTest_TestCalculateTotalScore6_TestE10CreateTestEv
FN:469,_ZN7testing8internal15TestFactoryImplI45BowlingGameTest_TestCalculateTotalScore7_TestE10CreateTestEv
FNDA:1,_ZN7testing8internal15TestFactoryImplI45BowlingGameTest_TestCalculateTotalScore7_TestE10CreateTestEv
FN:469,_ZN7testing8internal15TestFactoryImplI45BowlingGameTest_TestCalculateTotalScore8_TestE10CreateTestEv
FNDA:1,_ZN7testing8internal15TestFactoryImplI45BowlingGameTest_TestCalculateTotalScore8_TestE10CreateTestEv
FN:469,_ZN7testing8internal15TestFactoryImplI45BowlingGameTest_TestCalculateTotalScore9_TestE10CreateTestEv
FNDA:1,_ZN7testing8internal15TestFactoryImplI45BowlingGameTest_TestCalculateTotalScore9_TestE10CreateTestEv
FN:469,_ZN7testing8internal15TestFactoryImplI46BowlingGameTest_TestCalculateTotalScore10_TestE10CreateTestEv
FNDA:1,_ZN7testing8internal15TestFactoryImplI46BowlingGameTest_TestCalculateTotalScore10_TestE10CreateTestEv
FN:469,_ZN7testing8internal15TestFactoryImplI46BowlingGameTest_TestCalculateTotalScore11_TestE10CreateTestEv
FNDA:1,_ZN7testing8internal15TestFactoryImplI46BowlingGameTest_TestCalculateTotalScore11_TestE10CreateTestEv
FN:469,_ZN7testing8internal15TestFactoryImplI46BowlingGameTest_TestCalculateTotalScore12_TestE10CreateTestEv
FNDA:1,_ZN7testing8internal15TestFactoryImplI46BowlingGameTest_TestCalculateTotalScore12_TestE10CreateTestEv
FN:469,_ZN7testing8internal15TestFactoryImplI54BowlingGameTest_TestCalculateTotalScoreAllFrame10_TestE10CreateTestEv
FNDA:1,_ZN7testing8internal15TestFactoryImplI54BowlingGameTest_TestCalculateTotalScoreAllFrame10_TestE10CreateTestEv
FN:490,_ZN7testing8internal12CodeLocationC2ERKNSt7__cxx1112basic_stringIcSt11char_traitsIcESaIcEEEi
FNDA:30,_ZN7testing8internal12CodeLocationC2ERKNSt7__cxx1112basic_stringIcSt11char_traitsIcESaIcEEEi
FN:503,_ZN7testing8internal19GetNotDefaultOrNullEPFvvES2_
FNDA:120,_ZN7testing8internal19GetNotDefaultOrNullEPFvvES2_
FN:518,_ZN7testing8internal16SuiteApiResolverI15BowlingGameTestE19GetSetUpCaseOrSuiteEPKci
FNDA:25,_ZN7testing8internal16SuiteApiResolverI15BowlingGameTestE19GetSetUpCaseOrSuiteEPKci
FN:539,_ZN7testing8internal16SuiteApiResolverI15BowlingGameTestE22GetTearDownCaseOrSuiteEPKci
FNDA:25,_ZN7testing8internal16SuiteApiResolverI15BowlingGameTestE22GetTearDownCaseOrSuiteEPKci
DA:431,25
DA:436,25
DA:450,0
DA:450,30
DA:457,30
DA:469,1
DA:469,1
DA:469,1
DA:469,1
DA:469,1
DA:469,1
DA:469,1
DA:469,1
DA:469,1
DA:469,1
DA:469,1
DA:469,1
DA:469,1
DA:469,1
DA:469,1
DA:469,1
DA:469,1
DA:469,1
DA:469,1
DA:469,1
DA:469,1
DA:469,1
DA:469,1
DA:469,1
DA:469,1
DA:490,30
DA:491,30
DA:503,120
DA:505,120
DA:518,25
DA:522,25
DA:524,25
DA:526,25
DA:529,0
DA:531,25
DA:539,25
DA:543,25
DA:545,25
DA:547,25
DA:550,0
DA:552,25
end_of_record
SF:/home/shiv/demo/gtest/bowlinggame/unit_testing/BowlingGameTest.cpp
FN:11,_ZN15BowlingGameTestC2Ev
FNDA:25,_ZN15BowlingGameTestC2Ev
FN:16,_ZN15BowlingGameTestD2Ev
FNDA:25,_ZN15BowlingGameTestD2Ev
FN:16,_ZN15BowlingGameTestD0Ev
FNDA:0,_ZN15BowlingGameTestD0Ev
FN:21,_ZN15BowlingGameTest5SetUpEv
FNDA:25,_ZN15BowlingGameTest5SetUpEv
FN:26,_ZN15BowlingGameTest8TearDownEv
FNDA:25,_ZN15BowlingGameTest8TearDownEv
FN:55,_ZN33BowlingGameTest_Testgetframe_TestC2Ev
FNDA:1,_ZN33BowlingGameTest_Testgetframe_TestC2Ev
FN:55,_ZN33BowlingGameTest_Testgetframe_Test8TestBodyEv
FNDA:1,_ZN33BowlingGameTest_Testgetframe_Test8TestBodyEv
FN:55,_ZN33BowlingGameTest_Testgetframe_TestD2Ev
FNDA:1,_ZN33BowlingGameTest_Testgetframe_TestD2Ev
FN:55,_ZN33BowlingGameTest_Testgetframe_TestD0Ev
FNDA:1,_ZN33BowlingGameTest_Testgetframe_TestD0Ev
FN:65,_ZN45BowlingGameTest_TestCalculateTotalScore1_TestC2Ev
FNDA:1,_ZN45BowlingGameTest_TestCalculateTotalScore1_TestC2Ev
FN:65,_ZN45BowlingGameTest_TestCalculateTotalScore1_Test8TestBodyEv
FNDA:1,_ZN45BowlingGameTest_TestCalculateTotalScore1_Test8TestBodyEv
FN:65,_ZN45BowlingGameTest_TestCalculateTotalScore1_TestD2Ev
FNDA:1,_ZN45BowlingGameTest_TestCalculateTotalScore1_TestD2Ev
FN:65,_ZN45BowlingGameTest_TestCalculateTotalScore1_TestD0Ev
FNDA:1,_ZN45BowlingGameTest_TestCalculateTotalScore1_TestD0Ev
FN:79,_ZN45BowlingGameTest_TestCalculateTotalScore2_TestC2Ev
FNDA:1,_ZN45BowlingGameTest_TestCalculateTotalScore2_TestC2Ev
FN:79,_ZN45BowlingGameTest_TestCalculateTotalScore2_Test8TestBodyEv
FNDA:1,_ZN45BowlingGameTest_TestCalculateTotalScore2_Test8TestBodyEv
FN:79,_ZN45BowlingGameTest_TestCalculateTotalScore2_TestD2Ev
FNDA:1,_ZN45BowlingGameTest_TestCalculateTotalScore2_TestD2Ev
FN:79,_ZN45BowlingGameTest_TestCalculateTotalScore2_TestD0Ev
FNDA:1,_ZN45BowlingGameTest_TestCalculateTotalScore2_TestD0Ev
FN:93,_ZN45BowlingGameTest_TestCalculateTotalScore3_TestC2Ev
FNDA:1,_ZN45BowlingGameTest_TestCalculateTotalScore3_TestC2Ev
FN:93,_ZN45BowlingGameTest_TestCalculateTotalScore3_TestD2Ev
FNDA:1,_ZN45BowlingGameTest_TestCalculateTotalScore3_TestD2Ev
FN:93,_ZN45BowlingGameTest_TestCalculateTotalScore3_Test8TestBodyEv
FNDA:1,_ZN45BowlingGameTest_TestCalculateTotalScore3_Test8TestBodyEv
FN:93,_ZN45BowlingGameTest_TestCalculateTotalScore3_TestD0Ev
FNDA:1,_ZN45BowlingGameTest_TestCalculateTotalScore3_TestD0Ev
FN:106,_ZN45BowlingGameTest_TestCalculateTotalScore4_TestC2Ev
FNDA:1,_ZN45BowlingGameTest_TestCalculateTotalScore4_TestC2Ev
FN:106,_ZN45BowlingGameTest_TestCalculateTotalScore4_TestD2Ev
FNDA:1,_ZN45BowlingGameTest_TestCalculateTotalScore4_TestD2Ev
FN:106,_ZN45BowlingGameTest_TestCalculateTotalScore4_TestD0Ev
FNDA:1,_ZN45BowlingGameTest_TestCalculateTotalScore4_TestD0Ev
FN:106,_ZN45BowlingGameTest_TestCalculateTotalScore4_Test8TestBodyEv
FNDA:1,_ZN45BowlingGameTest_TestCalculateTotalScore4_Test8TestBodyEv
FN:119,_ZN45BowlingGameTest_TestCalculateTotalScore5_Test8TestBodyEv
FNDA:1,_ZN45BowlingGameTest_TestCalculateTotalScore5_Test8TestBodyEv
FN:119,_ZN45BowlingGameTest_TestCalculateTotalScore5_TestD2Ev
FNDA:1,_ZN45BowlingGameTest_TestCalculateTotalScore5_TestD2Ev
FN:119,_ZN45BowlingGameTest_TestCalculateTotalScore5_TestD0Ev
FNDA:1,_ZN45BowlingGameTest_TestCalculateTotalScore5_TestD0Ev
FN:119,_ZN45BowlingGameTest_TestCalculateTotalScore5_TestC2Ev
FNDA:1,_ZN45BowlingGameTest_TestCalculateTotalScore5_TestC2Ev
FN:131,_ZN45BowlingGameTest_TestCalculateTotalScore6_Test8TestBodyEv
FNDA:1,_ZN45BowlingGameTest_TestCalculateTotalScore6_Test8TestBodyEv
FN:131,_ZN45BowlingGameTest_TestCalculateTotalScore6_TestD2Ev
FNDA:1,_ZN45BowlingGameTest_TestCalculateTotalScore6_TestD2Ev
FN:131,_ZN45BowlingGameTest_TestCalculateTotalScore6_TestD0Ev
FNDA:1,_ZN45BowlingGameTest_TestCalculateTotalScore6_TestD0Ev
FN:131,_ZN45BowlingGameTest_TestCalculateTotalScore6_TestC2Ev
FNDA:1,_ZN45BowlingGameTest_TestCalculateTotalScore6_TestC2Ev
FN:143,_ZN45BowlingGameTest_TestCalculateTotalScore7_TestC2Ev
FNDA:1,_ZN45BowlingGameTest_TestCalculateTotalScore7_TestC2Ev
FN:143,_ZN45BowlingGameTest_TestCalculateTotalScore7_Test8TestBodyEv
FNDA:1,_ZN45BowlingGameTest_TestCalculateTotalScore7_Test8TestBodyEv
FN:143,_ZN45BowlingGameTest_TestCalculateTotalScore7_TestD0Ev
FNDA:1,_ZN45BowlingGameTest_TestCalculateTotalScore7_TestD0Ev
FN:143,_ZN45BowlingGameTest_TestCalculateTotalScore7_TestD2Ev
FNDA:1,_ZN45BowlingGameTest_TestCalculateTotalScore7_TestD2Ev
FN:155,_ZN45BowlingGameTest_TestCalculateTotalScore8_TestC2Ev
FNDA:1,_ZN45BowlingGameTest_TestCalculateTotalScore8_TestC2Ev
FN:155,_ZN45BowlingGameTest_TestCalculateTotalScore8_Test8TestBodyEv
FNDA:1,_ZN45BowlingGameTest_TestCalculateTotalScore8_Test8TestBodyEv
FN:155,_ZN45BowlingGameTest_TestCalculateTotalScore8_TestD0Ev
FNDA:1,_ZN45BowlingGameTest_TestCalculateTotalScore8_TestD0Ev
FN:155,_ZN45BowlingGameTest_TestCalculateTotalScore8_TestD2Ev
FNDA:1,_ZN45BowlingGameTest_TestCalculateTotalScore8_TestD2Ev
FN:167,_ZN45BowlingGameTest_TestCalculateTotalScore9_Test8TestBodyEv
FNDA:1,_ZN45BowlingGameTest_TestCalculateTotalScore9_Test8TestBodyEv
FN:167,_ZN45BowlingGameTest_TestCalculateTotalScore9_TestC2Ev
FNDA:1,_ZN45BowlingGameTest_TestCalculateTotalScore9_TestC2Ev
FN:167,_ZN45BowlingGameTest_TestCalculateTotalScore9_TestD0Ev
FNDA:1,_ZN45BowlingGameTest_TestCalculateTotalScore9_TestD0Ev
FN:167,_ZN45BowlingGameTest_TestCalculateTotalScore9_TestD2Ev
FNDA:1,_ZN45BowlingGameTest_TestCalculateTotalScore9_TestD2Ev
FN:179,_ZN46BowlingGameTest_TestCalculateTotalScore10_Test8TestBodyEv
FNDA:1,_ZN46BowlingGameTest_TestCalculateTotalScore10_Test8TestBodyEv
FN:179,_ZN46BowlingGameTest_TestCalculateTotalScore10_TestD2Ev
FNDA:1,_ZN46BowlingGameTest_TestCalculateTotalScore10_TestD2Ev
FN:179,_ZN46BowlingGameTest_TestCalculateTotalScore10_TestD0Ev
FNDA:1,_ZN46BowlingGameTest_TestCalculateTotalScore10_TestD0Ev
FN:179,_ZN46BowlingGameTest_TestCalculateTotalScore10_TestC2Ev
FNDA:1,_ZN46BowlingGameTest_TestCalculateTotalScore10_TestC2Ev
FN:190,_ZN46BowlingGameTest_TestCalculateTotalScore11_TestD0Ev
FNDA:1,_ZN46BowlingGameTest_TestCalculateTotalScore11_TestD0Ev
FN:190,_ZN46BowlingGameTest_TestCalculateTotalScore11_TestD2Ev
FNDA:1,_ZN46BowlingGameTest_TestCalculateTotalScore11_TestD2Ev
FN:190,_ZN46BowlingGameTest_TestCalculateTotalScore11_Test8TestBodyEv
FNDA:1,_ZN46BowlingGameTest_TestCalculateTotalScore11_Test8TestBodyEv
FN:190,_ZN46BowlingGameTest_TestCalculateTotalScore11_TestC2Ev
FNDA:1,_ZN46BowlingGameTest_TestCalculateTotalScore11_TestC2Ev
FN:201,_ZN46BowlingGameTest_TestCalculateTotalScore12_TestD0Ev
FNDA:1,_ZN46BowlingGameTest_TestCalculateTotalScore12_TestD0Ev
FN:201,_ZN46BowlingGameTest_TestCalculateTotalScore12_TestD2Ev
FNDA:1,_ZN46BowlingGameTest_TestCalculateTotalScore12_TestD2Ev
FN:201,_ZN46BowlingGameTest_TestCalculateTotalScore12_Test8TestBodyEv
FNDA:1,_ZN46BowlingGameTest_TestCalculateTotalScore12_Test8TestBodyEv
FN:201,_ZN46BowlingGameTest_TestCalculateTotalScore12_TestC2Ev
FNDA:1,_ZN46BowlingGameTest_TestCalculateTotalScore12_TestC2Ev
FN:213,_ZN54BowlingGameTest_TestCalculateTotalScoreAllFrame10_Test8TestBodyEv
FNDA:1,_ZN54BowlingGameTest_TestCalculateTotalScoreAllFrame10_Test8TestBodyEv
FN:213,_ZN54BowlingGameTest_TestCalculateTotalScoreAllFrame10_TestC2Ev
FNDA:1,_ZN54BowlingGameTest_TestCalculateTotalScoreAllFrame10_TestC2Ev
FN:213,_ZN54BowlingGameTest_TestCalculateTotalScoreAllFrame10_TestD2Ev
FNDA:1,_ZN54BowlingGameTest_TestCalculateTotalScoreAllFrame10_TestD2Ev
FN:213,_ZN54BowlingGameTest_TestCalculateTotalScoreAllFrame10_TestD0Ev
FNDA:1,_ZN54BowlingGameTest_TestCalculateTotalScoreAllFrame10_TestD0Ev
FN:224,_ZN53BowlingGameTest_TestCalculateTotalScoreAllFrame0_TestC2Ev
FNDA:1,_ZN53BowlingGameTest_TestCalculateTotalScoreAllFrame0_TestC2Ev
FN:224,_ZN53BowlingGameTest_TestCalculateTotalScoreAllFrame0_Test8TestBodyEv
FNDA:1,_ZN53BowlingGameTest_TestCalculateTotalScoreAllFrame0_Test8TestBodyEv
FN:224,_ZN53BowlingGameTest_TestCalculateTotalScoreAllFrame0_TestD0Ev
FNDA:1,_ZN53BowlingGameTest_TestCalculateTotalScoreAllFrame0_TestD0Ev
FN:224,_ZN53BowlingGameTest_TestCalculateTotalScoreAllFrame0_TestD2Ev
FNDA:1,_ZN53BowlingGameTest_TestCalculateTotalScoreAllFrame0_TestD2Ev
FN:234,_ZN34BowlingGameTest_TestgetInput1_Test8TestBodyEv
FNDA:1,_ZN34BowlingGameTest_TestgetInput1_Test8TestBodyEv
FN:234,_ZN34BowlingGameTest_TestgetInput1_TestC2Ev
FNDA:1,_ZN34BowlingGameTest_TestgetInput1_TestC2Ev
FN:234,_ZN34BowlingGameTest_TestgetInput1_TestD0Ev
FNDA:1,_ZN34BowlingGameTest_TestgetInput1_TestD0Ev
FN:234,_ZN34BowlingGameTest_TestgetInput1_TestD2Ev
FNDA:1,_ZN34BowlingGameTest_TestgetInput1_TestD2Ev
FN:245,_ZN34BowlingGameTest_TestgetInput2_TestC2Ev
FNDA:1,_ZN34BowlingGameTest_TestgetInput2_TestC2Ev
FN:245,_ZN34BowlingGameTest_TestgetInput2_TestD0Ev
FNDA:1,_ZN34BowlingGameTest_TestgetInput2_TestD0Ev
FN:245,_ZN34BowlingGameTest_TestgetInput2_TestD2Ev
FNDA:1,_ZN34BowlingGameTest_TestgetInput2_TestD2Ev
FN:245,_ZN34BowlingGameTest_TestgetInput2_Test8TestBodyEv
FNDA:1,_ZN34BowlingGameTest_TestgetInput2_Test8TestBodyEv
FN:256,_ZN34BowlingGameTest_TestgetInput3_TestC2Ev
FNDA:1,_ZN34BowlingGameTest_TestgetInput3_TestC2Ev
FN:256,_ZN34BowlingGameTest_TestgetInput3_TestD0Ev
FNDA:1,_ZN34BowlingGameTest_TestgetInput3_TestD0Ev
FN:256,_ZN34BowlingGameTest_TestgetInput3_TestD2Ev
FNDA:1,_ZN34BowlingGameTest_TestgetInput3_TestD2Ev
FN:256,_ZN34BowlingGameTest_TestgetInput3_Test8TestBodyEv
FNDA:1,_ZN34BowlingGameTest_TestgetInput3_Test8TestBodyEv
FN:267,_ZN34BowlingGameTest_TestgetInput4_TestC2Ev
FNDA:1,_ZN34BowlingGameTest_TestgetInput4_TestC2Ev
FN:267,_ZN34BowlingGameTest_TestgetInput4_TestD0Ev
FNDA:1,_ZN34BowlingGameTest_TestgetInput4_TestD0Ev
FN:267,_ZN34BowlingGameTest_TestgetInput4_TestD2Ev
FNDA:1,_ZN34BowlingGameTest_TestgetInput4_TestD2Ev
FN:267,_ZN34BowlingGameTest_TestgetInput4_Test8TestBodyEv
FNDA:1,_ZN34BowlingGameTest_TestgetInput4_Test8TestBodyEv
FN:278,_ZN34BowlingGameTest_TestgetInput5_TestD2Ev
FNDA:1,_ZN34BowlingGameTest_TestgetInput5_TestD2Ev
FN:278,_ZN34BowlingGameTest_TestgetInput5_TestC2Ev
FNDA:1,_ZN34BowlingGameTest_TestgetInput5_TestC2Ev
FN:278,_ZN34BowlingGameTest_TestgetInput5_TestD0Ev
FNDA:1,_ZN34BowlingGameTest_TestgetInput5_TestD0Ev
FN:278,_ZN34BowlingGameTest_TestgetInput5_Test8TestBodyEv
FNDA:1,_ZN34BowlingGameTest_TestgetInput5_Test8TestBodyEv
FN:289,_ZN34BowlingGameTest_TestgetInput6_Test8TestBodyEv
FNDA:1,_ZN34BowlingGameTest_TestgetInput6_Test8TestBodyEv
FN:289,_ZN34BowlingGameTest_TestgetInput6_TestC2Ev
FNDA:1,_ZN34BowlingGameTest_TestgetInput6_TestC2Ev
FN:289,_ZN34BowlingGameTest_TestgetInput6_TestD0Ev
FNDA:1,_ZN34BowlingGameTest_TestgetInput6_TestD0Ev
FN:289,_ZN34BowlingGameTest_TestgetInput6_TestD2Ev
FNDA:1,_ZN34BowlingGameTest_TestgetInput6_TestD2Ev
FN:300,_ZN34BowlingGameTest_TestgetInput7_TestD2Ev
FNDA:1,_ZN34BowlingGameTest_TestgetInput7_TestD2Ev
FN:300,_ZN34BowlingGameTest_TestgetInput7_TestD0Ev
FNDA:1,_ZN34BowlingGameTest_TestgetInput7_TestD0Ev
FN:300,_ZN34BowlingGameTest_TestgetInput7_TestC2Ev
FNDA:1,_ZN34BowlingGameTest_TestgetInput7_TestC2Ev
FN:300,_ZN34BowlingGameTest_TestgetInput7_Test8TestBodyEv
FNDA:1,_ZN34BowlingGameTest_TestgetInput7_Test8TestBodyEv
FN:311,_ZN34BowlingGameTest_TestgetInput8_Test8TestBodyEv
FNDA:1,_ZN34BowlingGameTest_TestgetInput8_Test8TestBodyEv
FN:311,_ZN34BowlingGameTest_TestgetInput8_TestC2Ev
FNDA:1,_ZN34BowlingGameTest_TestgetInput8_TestC2Ev
FN:311,_ZN34BowlingGameTest_TestgetInput8_TestD2Ev
FNDA:1,_ZN34BowlingGameTest_TestgetInput8_TestD2Ev
FN:311,_ZN34BowlingGameTest_TestgetInput8_TestD0Ev
FNDA:1,_ZN34BowlingGameTest_TestgetInput8_TestD0Ev
FN:322,_ZN34BowlingGameTest_TestgetInput9_Test8TestBodyEv
FNDA:1,_ZN34BowlingGameTest_TestgetInput9_Test8TestBodyEv
FN:322,_ZN34BowlingGameTest_TestgetInput9_TestC2Ev
FNDA:1,_ZN34BowlingGameTest_TestgetInput9_TestC2Ev
FN:322,_ZN34BowlingGameTest_TestgetInput9_TestD2Ev
FNDA:1,_ZN34BowlingGameTest_TestgetInput9_TestD2Ev
FN:322,_ZN34BowlingGameTest_TestgetInput9_TestD0Ev
FNDA:1,_ZN34BowlingGameTest_TestgetInput9_TestD0Ev
FN:333,_ZN35BowlingGameTest_TestgetInput10_Test8TestBodyEv
FNDA:1,_ZN35BowlingGameTest_TestgetInput10_Test8TestBodyEv
FN:333,_ZN35BowlingGameTest_TestgetInput10_TestD2Ev
FNDA:1,_ZN35BowlingGameTest_TestgetInput10_TestD2Ev
FN:333,_ZN35BowlingGameTest_TestgetInput10_TestC2Ev
FNDA:1,_ZN35BowlingGameTest_TestgetInput10_TestC2Ev
FN:333,_ZN35BowlingGameTest_TestgetInput10_TestD0Ev
FNDA:1,_ZN35BowlingGameTest_TestgetInput10_TestD0Ev
DA:11,25
DA:13,25
DA:14,25
DA:16,0
DA:19,0
DA:16,25
DA:17,25
DA:18,25
DA:19,25
DA:21,25
DA:23,25
DA:24,25
DA:26,25
DA:28,25
DA:29,25
DA:30,25
DA:55,1
DA:55,1
DA:55,1
DA:55,1
DA:57,1
DA:58,1
DA:59,1
DA:65,1
DA:65,1
DA:65,1
DA:65,1
DA:67,1
DA:68,1
DA:70,8
DA:72,7
DA:74,1
DA:75,1
DA:76,1
DA:79,1
DA:79,1
DA:79,1
DA:79,1
DA:81,1
DA:83,9
DA:85,8
DA:87,1
DA:89,1
DA:90,1
DA:93,1
DA:93,1
DA:93,1
DA:93,1
DA:95,8
DA:97,7
DA:99,1
DA:100,1
DA:101,1
DA:102,1
DA:103,1
DA:106,1
DA:106,1
DA:106,1
DA:106,1
DA:108,8
DA:110,7
DA:112,1
DA:113,1
DA:114,1
DA:115,1
DA:116,1
DA:119,1
DA:119,1
DA:119,1
DA:119,1
DA:121,9
DA:123,8
DA:125,1
DA:126,1
DA:127,1
DA:128,1
DA:131,1
DA:131,1
DA:131,1
DA:131,1
DA:133,9
DA:135,8
DA:137,1
DA:138,1
DA:139,1
DA:140,1
DA:143,1
DA:143,1
DA:143,1
DA:143,1
DA:145,1
DA:146,9
DA:148,8
DA:150,1
DA:151,1
DA:152,1
DA:155,1
DA:155,1
DA:155,1
DA:155,1
DA:157,9
DA:159,8
DA:161,1
DA:162,1
DA:163,1
DA:164,1
DA:167,1
DA:167,1
DA:167,1
DA:167,1
DA:169,1
DA:170,9
DA:172,8
DA:174,1
DA:175,1
DA:176,1
DA:179,1
DA:179,1
DA:179,1
DA:179,1
DA:181,10
DA:183,9
DA:185,1
DA:186,1
DA:187,1
DA:190,1
DA:190,1
DA:190,1
DA:190,1
DA:192,10
DA:194,9
DA:196,1
DA:197,1
DA:198,1
DA:201,1
DA:201,1
DA:201,1
DA:201,1
DA:203,10
DA:205,9
DA:207,1
DA:208,1
DA:209,1
DA:213,1
DA:213,1
DA:213,1
DA:213,1
DA:215,10
DA:217,9
DA:219,1
DA:220,1
DA:221,1
DA:224,1
DA:224,1
DA:224,1
DA:224,1
DA:226,10
DA:228,9
DA:230,1
DA:231,1
DA:232,1
DA:234,1
DA:234,1
DA:234,1
DA:234,1
DA:236,1
DA:237,2
DA:238,2
DA:239,1
DA:240,1
DA:241,1
DA:242,1
DA:243,1
DA:245,1
DA:245,1
DA:245,1
DA:245,1
DA:247,1
DA:248,2
DA:249,2
DA:250,1
DA:251,1
DA:252,1
DA:253,1
DA:254,1
DA:256,1
DA:256,1
DA:256,1
DA:256,1
DA:258,1
DA:259,2
DA:260,2
DA:261,1
DA:262,1
DA:263,1
DA:264,1
DA:265,1
DA:267,1
DA:267,1
DA:267,1
DA:267,1
DA:269,1
DA:270,2
DA:271,2
DA:272,1
DA:273,1
DA:274,1
DA:275,1
DA:276,1
DA:278,1
DA:278,1
DA:278,1
DA:278,1
DA:280,1
DA:281,2
DA:282,2
DA:283,1
DA:284,1
DA:285,1
DA:286,1
DA:287,1
DA:289,1
DA:289,1
DA:289,1
DA:289,1
DA:291,1
DA:292,2
DA:293,2
DA:294,1
DA:295,1
DA:296,1
DA:297,1
DA:298,1
DA:300,1
DA:300,1
DA:300,1
DA:300,1
DA:302,1
DA:303,2
DA:304,2
DA:305,1
DA:306,1
DA:307,1
DA:308,1
DA:309,1
DA:311,1
DA:311,1
DA:311,1
DA:311,1
DA:313,1
DA:314,2
DA:315,2
DA:316,1
DA:317,1
DA:318,1
DA:319,1
DA:320,1
DA:322,1
DA:322,1
DA:322,1
DA:322,1
DA:324,1
DA:325,2
DA:326,2
DA:327,1
DA:328,1
DA:329,1
DA:330,1
DA:331,1
DA:333,1
DA:333,1
DA:333,1
DA:333,1
DA:335,1
DA:336,2
DA:337,2
DA:338,1
DA:339,1
DA:340,1
DA:341,1
DA:342,1
end_of_record
SF:/usr/include/c++/9/bits/ptr_traits.h
FN:146,_ZNSt14pointer_traitsIPKcE10pointer_toERS0_
FNDA:0,_ZNSt14pointer_traitsIPKcE10pointer_toERS0_
FN:146,_ZNSt14pointer_traitsIPcE10pointer_toERc
FNDA:0,_ZNSt14pointer_traitsIPcE10pointer_toERc
DA:146,0
DA:147,0
DA:146,0
DA:147,0
end_of_record
SF:/usr/include/c++/9/bits/char_traits.h
FN:100,_ZN9__gnu_cxx11char_traitsIcE2eqERKcS3_
FNDA:0,_ZN9__gnu_cxx11char_traitsIcE2eqERKcS3_
FN:161,_ZN9__gnu_cxx11char_traitsIcE6lengthEPKc
FNDA:0,_ZN9__gnu_cxx11char_traitsIcE6lengthEPKc
FN:299,_ZNSt11char_traitsIcE6assignERcRKc
FNDA:0,_ZNSt11char_traitsIcE6assignERcRKc
FN:336,_ZNSt11char_traitsIcE6lengthEPKc
FNDA:0,_ZNSt11char_traitsIcE6lengthEPKc
FN:368,_ZNSt11char_traitsIcE4copyEPcPKcm
FNDA:0,_ZNSt11char_traitsIcE4copyEPcPKcm
DA:100,0
DA:101,0
DA:161,0
DA:164,0
DA:165,0
DA:166,0
DA:167,0
DA:236,0
DA:299,0
DA:300,0
DA:336,0
DA:339,0
DA:340,0
DA:342,0
DA:368,0
DA:370,0
DA:371,0
DA:372,0
end_of_record
SF:/home/shiv/demo/gtest/bowlinggame/app/include/BowlingGame.hpp
FN:20,_ZN11BowlingGameC2Ei
FNDA:30,_ZN11BowlingGameC2Ei
FN:21,_ZN11BowlingGameD2Ev
FNDA:30,_ZN11BowlingGameD2Ev
FN:23,_ZN11BowlingGame8shutDownEv
FNDA:30,_ZN11BowlingGame8shutDownEv
FN:32,_ZN11BowlingGame8getframeEv
FNDA:0,_ZN11BowlingGame8getframeEv
DA:20,30
DA:21,30
DA:23,30
DA:25,303
DA:27,273
DA:29,30
DA:30,30
DA:32,0
DA:34,0
end_of_record
SF:/usr/include/c++/9/bits/basic_string.h
FN:160,_ZNSt7__cxx1112basic_stringIcSt11char_traitsIcESaIcEE12_Alloc_hiderC2EPcRKS3_
FNDA:0,_ZNSt7__cxx1112basic_stringIcSt11char_traitsIcESaIcEE12_Alloc_hiderC2EPcRKS3_
FN:163,_ZNSt7__cxx1112basic_stringIcSt11char_traitsIcESaIcEE12_Alloc_hiderC2EPcOS3_
FNDA:670,_ZNSt7__cxx1112basic_stringIcSt11char_traitsIcESaIcEE12_Alloc_hiderC2EPcOS3_
FN:182,_ZNSt7__cxx1112basic_stringIcSt11char_traitsIcESaIcEE7_M_dataEPc
FNDA:0,_ZNSt7__cxx1112basic_stringIcSt11char_traitsIcESaIcEE7_M_dataEPc
FN:186,_ZNSt7__cxx1112basic_stringIcSt11char_traitsIcESaIcEE9_M_lengthEm
FNDA:0,_ZNSt7__cxx1112basic_stringIcSt11char_traitsIcESaIcEE9_M_lengthEm
FN:190,_ZNKSt7__cxx1112basic_stringIcSt11char_traitsIcESaIcEE7_M_dataEv
FNDA:0,_ZNKSt7__cxx1112basic_stringIcSt11char_traitsIcESaIcEE7_M_dataEv
FN:194,_ZNSt7__cxx1112basic_stringIcSt11char_traitsIcESaIcEE13_M_local_dataEv
FNDA:0,_ZNSt7__cxx1112basic_stringIcSt11char_traitsIcESaIcEE13_M_local_dataEv
FN:204,_ZNKSt7__cxx1112basic_stringIcSt11char_traitsIcESaIcEE13_M_local_dataEv
FNDA:0,_ZNKSt7__cxx1112basic_stringIcSt11char_traitsIcESaIcEE13_M_local_dataEv
FN:214,_ZNSt7__cxx1112basic_stringIcSt11char_traitsIcESaIcEE11_M_capacityEm
FNDA:0,_ZNSt7__cxx1112basic_stringIcSt11char_traitsIcESaIcEE11_M_capacityEm
FN:218,_ZNSt7__cxx1112basic_stringIcSt11char_traitsIcESaIcEE13_M_set_lengthEm
FNDA:0,_ZNSt7__cxx1112basic_stringIcSt11char_traitsIcESaIcEE13_M_set_lengthEm
FN:225,_ZNKSt7__cxx1112basic_stringIcSt11char_traitsIcESaIcEE11_M_is_localEv
FNDA:0,_ZNKSt7__cxx1112basic_stringIcSt11char_traitsIcESaIcEE11_M_is_localEv
FN:233,_ZNSt7__cxx1112basic_stringIcSt11char_traitsIcESaIcEE10_M_disposeEv
FNDA:0,_ZNSt7__cxx1112basic_stringIcSt11char_traitsIcESaIcEE10_M_disposeEv
FN:240,_ZNSt7__cxx1112basic_stringIcSt11char_traitsIcESaIcEE10_M_destroyEm
FNDA:0,_ZNSt7__cxx1112basic_stringIcSt11char_traitsIcESaIcEE10_M_destroyEm
FN:247,_ZNSt7__cxx1112basic_stringIcSt11char_traitsIcESaIcEE16_M_construct_auxIPKcEEvT_S8_St12__false_type
FNDA:0,_ZNSt7__cxx1112basic_stringIcSt11char_traitsIcESaIcEE16_M_construct_auxIPKcEEvT_S8_St12__false_type
FN:247,_ZNSt7__cxx1112basic_stringIcSt11char_traitsIcESaIcEE16_M_construct_auxIPcEEvT_S7_St12__false_type
FNDA:275,_ZNSt7__cxx1112basic_stringIcSt11char_traitsIcESaIcEE16_M_construct_auxIPcEEvT_S7_St12__false_type
FN:267,_ZNSt7__cxx1112basic_stringIcSt11char_traitsIcESaIcEE12_M_constructIPcEEvT_S7_
FNDA:275,_ZNSt7__cxx1112basic_stringIcSt11char_traitsIcESaIcEE12_M_constructIPcEEvT_S7_
FN:267,_ZNSt7__cxx1112basic_stringIcSt11char_traitsIcESaIcEE12_M_constructIPKcEEvT_S8_
FNDA:0,_ZNSt7__cxx1112basic_stringIcSt11char_traitsIcESaIcEE12_M_constructIPKcEEvT_S8_
FN:290,_ZNSt7__cxx1112basic_stringIcSt11char_traitsIcESaIcEE16_M_get_allocatorEv
FNDA:0,_ZNSt7__cxx1112basic_stringIcSt11char_traitsIcESaIcEE16_M_get_allocatorEv
FN:294,_ZNKSt7__cxx1112basic_stringIcSt11char_traitsIcESaIcEE16_M_get_allocatorEv
FNDA:0,_ZNKSt7__cxx1112basic_stringIcSt11char_traitsIcESaIcEE16_M_get_allocatorEv
FN:350,_ZNSt7__cxx1112basic_stringIcSt11char_traitsIcESaIcEE7_S_copyEPcPKcm
FNDA:0,_ZNSt7__cxx1112basic_stringIcSt11char_traitsIcESaIcEE7_S_copyEPcPKcm
FN:396,_ZNSt7__cxx1112basic_stringIcSt11char_traitsIcESaIcEE13_S_copy_charsEPcS5_S5_
FNDA:275,_ZNSt7__cxx1112basic_stringIcSt11char_traitsIcESaIcEE13_S_copy_charsEPcS5_S5_
FN:400,_ZNSt7__cxx1112basic_stringIcSt11char_traitsIcESaIcEE13_S_copy_charsEPcPKcS7_
FNDA:0,_ZNSt7__cxx1112basic_stringIcSt11char_traitsIcESaIcEE13_S_copy_charsEPcPKcS7_
FN:452,_ZNSt7__cxx1112basic_stringIcSt11char_traitsIcESaIcEEC2ERKS4_
FNDA:275,_ZNSt7__cxx1112basic_stringIcSt11char_traitsIcESaIcEEC2ERKS4_
FN:529,_ZNSt7__cxx1112basic_stringIcSt11char_traitsIcESaIcEEC2IS3_EEPKcRKS3_
FNDA:0,_ZNSt7__cxx1112basic_stringIcSt11char_traitsIcESaIcEEC2IS3_EEPKcRKS3_
FN:661,_ZNSt7__cxx1112basic_stringIcSt11char_traitsIcESaIcEED2Ev
FNDA:0,_ZNSt7__cxx1112basic_stringIcSt11char_traitsIcESaIcEED2Ev
FN:940,_ZNKSt7__cxx1112basic_stringIcSt11char_traitsIcESaIcEE6lengthEv
FNDA:1197,_ZNKSt7__cxx1112basic_stringIcSt11char_traitsIcESaIcEE6lengthEv
FN:945,_ZNKSt7__cxx1112basic_stringIcSt11char_traitsIcESaIcEE8max_sizeEv
FNDA:0,_ZNKSt7__cxx1112basic_stringIcSt11char_traitsIcESaIcEE8max_sizeEv
FN:2304,_ZNKSt7__cxx1112basic_stringIcSt11char_traitsIcESaIcEE5c_strEv
FNDA:1332,_ZNKSt7__cxx1112basic_stringIcSt11char_traitsIcESaIcEE5c_strEv
DA:160,0
DA:161,0
DA:163,670
DA:164,670
DA:182,0
DA:183,0
DA:186,0
DA:187,0
DA:190,0
DA:191,0
DA:194,0
DA:197,0
DA:204,0
DA:207,0
DA:214,0
DA:215,0
DA:218,0
DA:220,0
DA:221,0
DA:222,0
DA:225,0
DA:226,0
DA:233,0
DA:235,0
DA:236,0
DA:237,0
DA:240,0
DA:241,0
DA:247,275
DA:251,275
DA:252,275
DA:247,0
DA:251,0
DA:252,0
DA:267,275
DA:270,275
DA:271,275
DA:267,0
DA:270,0
DA:271,0
DA:290,0
DA:291,0
DA:294,0
DA:295,0
DA:350,0
DA:352,0
DA:353,0
DA:355,0
DA:356,0
DA:396,275
DA:397,275
DA:400,0
DA:402,0
DA:452,275
DA:454,275
DA:455,275
DA:529,0
DA:530,0
DA:531,0
DA:661,0
DA:662,0
DA:940,1197
DA:941,1197
DA:945,0
DA:946,0
DA:2304,1332
DA:2305,1332
end_of_record
SF:/usr/include/c++/9/bits/stl_vector.h
FN:94,_ZNSt12_Vector_baseIP9FrameTypeSaIS1_EE17_Vector_impl_dataC2Ev
FNDA:30,_ZNSt12_Vector_baseIP9FrameTypeSaIS1_EE17_Vector_impl_dataC2Ev
FN:128,_ZNSt12_Vector_baseIP9FrameTypeSaIS1_EE12_Vector_implC2Ev
FNDA:30,_ZNSt12_Vector_baseIP9FrameTypeSaIS1_EE12_Vector_implC2Ev
FN:273,_ZNSt12_Vector_baseIP9FrameTypeSaIS1_EE19_M_get_Tp_allocatorEv
FNDA:0,_ZNSt12_Vector_baseIP9FrameTypeSaIS1_EE19_M_get_Tp_allocatorEv
FN:285,_ZNSt12_Vector_baseIP9FrameTypeSaIS1_EEC2Ev
FNDA:30,_ZNSt12_Vector_baseIP9FrameTypeSaIS1_EEC2Ev
FN:330,_ZNSt12_Vector_baseIP9FrameTypeSaIS1_EED2Ev
FNDA:30,_ZNSt12_Vector_baseIP9FrameTypeSaIS1_EED2Ev
FN:347,_ZNSt12_Vector_baseIP9FrameTypeSaIS1_EE13_M_deallocateEPS1_m
FNDA:0,_ZNSt12_Vector_baseIP9FrameTypeSaIS1_EE13_M_deallocateEPS1_m
FN:484,_ZNSt6vectorIP9FrameTypeSaIS1_EEC2Ev
FNDA:30,_ZNSt6vectorIP9FrameTypeSaIS1_EEC2Ev
FN:675,_ZNSt6vectorIP9FrameTypeSaIS1_EED2Ev
FNDA:30,_ZNSt6vectorIP9FrameTypeSaIS1_EED2Ev
FN:808,_ZNSt6vectorIP9FrameTypeSaIS1_EE5beginEv
FNDA:0,_ZNSt6vectorIP9FrameTypeSaIS1_EE5beginEv
FN:826,_ZNSt6vectorIP9FrameTypeSaIS1_EE3endEv
FNDA:0,_ZNSt6vectorIP9FrameTypeSaIS1_EE3endEv
FN:915,_ZNKSt6vectorIP9FrameTypeSaIS1_EE4sizeEv
FNDA:0,_ZNKSt6vectorIP9FrameTypeSaIS1_EE4sizeEv
FN:1495,_ZNSt6vectorIP9FrameTypeSaIS1_EE5clearEv
FNDA:30,_ZNSt6vectorIP9FrameTypeSaIS1_EE5clearEv
FN:1789,_ZNSt6vectorIP9FrameTypeSaIS1_EE15_M_erase_at_endEPS1_
FNDA:30,_ZNSt6vectorIP9FrameTypeSaIS1_EE15_M_erase_at_endEPS1_
DA:94,30
DA:95,30
DA:96,30
DA:128,30
DA:130,30
DA:131,30
DA:273,0
DA:274,0
DA:285,30
DA:330,30
DA:332,30
DA:333,30
DA:334,30
DA:347,0
DA:350,0
DA:351,0
DA:352,0
DA:484,30
DA:675,30
DA:677,30
DA:678,30
DA:680,30
DA:808,0
DA:809,0
DA:826,0
DA:827,0
DA:915,0
DA:916,0
DA:1495,30
DA:1496,30
DA:1789,30
DA:1791,30
DA:1793,29
DA:1794,29
DA:1795,29
DA:1798,30
end_of_record
SF:/usr/local/include/gtest/gtest-assertion-result.h
FN:174,_ZNK7testing15AssertionResultcvbEv
FNDA:42,_ZNK7testing15AssertionResultcvbEv
FN:183,_ZNK7testing15AssertionResult7messageEv
FNDA:0,_ZNK7testing15AssertionResult7messageEv
FN:187,_ZNK7testing15AssertionResult15failure_messageEv
FNDA:0,_ZNK7testing15AssertionResult15failure_messageEv
DA:174,42
DA:183,0
DA:184,0
DA:187,0
end_of_record
SF:/usr/include/c++/9/bits/alloc_traits.h
FN:442,_ZNSt16allocator_traitsISaIcEE8allocateERS0_m
FNDA:0,_ZNSt16allocator_traitsISaIcEE8allocateERS0_m
FN:468,_ZNSt16allocator_traitsISaIP9FrameTypeEE10deallocateERS2_PS1_m
FNDA:0,_ZNSt16allocator_traitsISaIP9FrameTypeEE10deallocateERS2_PS1_m
FN:468,_ZNSt16allocator_traitsISaIcEE10deallocateERS0_Pcm
FNDA:0,_ZNSt16allocator_traitsISaIcEE10deallocateERS0_Pcm
FN:504,_ZNSt16allocator_traitsISaIcEE8max_sizeERKS0_
FNDA:0,_ZNSt16allocator_traitsISaIcEE8max_sizeERKS0_
FN:513,_ZNSt16allocator_traitsISaIcEE37select_on_container_copy_constructionERKS0_
FNDA:275,_ZNSt16allocator_traitsISaIcEE37select_on_container_copy_constructionERKS0_
DA:442,0
DA:443,0
DA:468,0
DA:469,0
DA:468,0
DA:469,0
DA:504,0
DA:505,0
DA:513,275
DA:514,275
end_of_record
SF:/usr/include/c++/9/bits/stl_iterator_base_types.h
FN:205,_ZSt19__iterator_categoryIPcENSt15iterator_traitsIT_E17iterator_categoryERKS2_
FNDA:275,_ZSt19__iterator_categoryIPcENSt15iterator_traitsIT_E17iterator_categoryERKS2_
FN:205,_ZSt19__iterator_categoryIPKcENSt15iterator_traitsIT_E17iterator_categoryERKS3_
FNDA:0,_ZSt19__iterator_categoryIPKcENSt15iterator_traitsIT_E17iterator_categoryERKS3_
DA:205,275
DA:206,275
DA:205,0
DA:206,0
end_of_record
SF:/usr/include/c++/9/bits/stl_construct.h
FN:117,_ZNSt12_Destroy_auxILb1EE9__destroyIPP9FrameTypeEEvT_S5_
FNDA:59,_ZNSt12_Destroy_auxILb1EE9__destroyIPP9FrameTypeEEvT_S5_
FN:127,_ZSt8_DestroyIPP9FrameTypeEvT_S3_
FNDA:59,_ZSt8_DestroyIPP9FrameTypeEvT_S3_
FN:203,_ZSt8_DestroyIPP9FrameTypeS1_EvT_S3_RSaIT0_E
FNDA:59,_ZSt8_DestroyIPP9FrameTypeS1_EvT_S3_RSaIT0_E
DA:117,59
DA:127,59
DA:137,59
DA:138,59
DA:203,59
DA:206,59
DA:207,59
end_of_record
SF:/usr/include/c++/9/iostream
end_of_record
SF:/usr/include/c++/9/ext/new_allocator.h
FN:80,_ZN9__gnu_cxx13new_allocatorIP9FrameTypeEC2Ev
FNDA:30,_ZN9__gnu_cxx13new_allocatorIP9FrameTypeEC2Ev
FN:80,_ZN9__gnu_cxx13new_allocatorIcEC2Ev
FNDA:0,_ZN9__gnu_cxx13new_allocatorIcEC2Ev
FN:83,_ZN9__gnu_cxx13new_allocatorIcEC2ERKS1_
FNDA:0,_ZN9__gnu_cxx13new_allocatorIcEC2ERKS1_
FN:89,_ZN9__gnu_cxx13new_allocatorIP9FrameTypeED2Ev
FNDA:30,_ZN9__gnu_cxx13new_allocatorIP9FrameTypeED2Ev
FN:89,_ZN9__gnu_cxx13new_allocatorIcED2Ev
FNDA:0,_ZN9__gnu_cxx13new_allocatorIcED2Ev
FN:102,_ZN9__gnu_cxx13new_allocatorIcE8allocateEmPKv
FNDA:0,_ZN9__gnu_cxx13new_allocatorIcE8allocateEmPKv
FN:119,_ZN9__gnu_cxx13new_allocatorIP9FrameTypeE10deallocateEPS2_m
FNDA:0,_ZN9__gnu_cxx13new_allocatorIP9FrameTypeE10deallocateEPS2_m
FN:119,_ZN9__gnu_cxx13new_allocatorIcE10deallocateEPcm
FNDA:0,_ZN9__gnu_cxx13new_allocatorIcE10deallocateEPcm
FN:132,_ZNK9__gnu_cxx13new_allocatorIcE8max_sizeEv
FNDA:0,_ZNK9__gnu_cxx13new_allocatorIcE8max_sizeEv
DA:80,30
DA:80,0
DA:83,0
DA:89,30
DA:89,0
DA:102,0
DA:104,0
DA:105,0
DA:114,0
DA:119,0
DA:128,0
DA:119,0
DA:128,0
DA:132,0
DA:135,0
end_of_record
SF:/usr/include/c++/9/ext/type_traits.h
FN:152,_ZN9__gnu_cxx17__is_null_pointerIcEEbPT_
FNDA:275,_ZN9__gnu_cxx17__is_null_pointerIcEEbPT_
FN:152,_ZN9__gnu_cxx17__is_null_pointerIKcEEbPT_
FNDA:0,_ZN9__gnu_cxx17__is_null_pointerIKcEEbPT_
DA:152,275
DA:153,275
DA:152,0
DA:153,0
end_of_record
SF:/usr/local/include/gtest/gtest.h
FN:244,_ZN7testing4Test14SetUpTestSuiteEv
FNDA:0,_ZN7testing4Test14SetUpTestSuiteEv
FN:252,_ZN7testing4Test17TearDownTestSuiteEv
FNDA:0,_ZN7testing4Test17TearDownTestSuiteEv
FN:257,_ZN7testing4Test16TearDownTestCaseEv
FNDA:0,_ZN7testing4Test16TearDownTestCaseEv
FN:258,_ZN7testing4Test13SetUpTestCaseEv
FNDA:0,_ZN7testing4Test13SetUpTestCaseEv
FN:339,_ZN7testing4Test5SetupEv
FNDA:0,_ZN7testing4Test5SetupEv
FN:1338,_ZN7testing8internal18CmpHelperEQFailureIiiEENS_15AssertionResultEPKcS4_RKT_RKT0_
FNDA:0,_ZN7testing8internal18CmpHelperEQFailureIiiEENS_15AssertionResultEPKcS4_RKT_RKT0_
FN:1338,_ZN7testing8internal18CmpHelperEQFailureImiEENS_15AssertionResultEPKcS4_RKT_RKT0_
FNDA:0,_ZN7testing8internal18CmpHelperEQFailureImiEENS_15AssertionResultEPKcS4_RKT_RKT0_
FN:1355,_ZN7testing8internal11CmpHelperEQIiiEENS_15AssertionResultEPKcS4_RKT_RKT0_
FNDA:24,_ZN7testing8internal11CmpHelperEQIiiEENS_15AssertionResultEPKcS4_RKT_RKT0_
FN:1355,_ZN7testing8internal11CmpHelperEQImiEENS_15AssertionResultEPKcS4_RKT_RKT0_
FNDA:16,_ZN7testing8internal11CmpHelperEQImiEENS_15AssertionResultEPKcS4_RKT_RKT0_
FN:1374,_ZN7testing8internal8EqHelper7CompareIiiLPv0EEENS_15AssertionResultEPKcS6_RKT_RKT0_
FNDA:24,_ZN7testing8internal8EqHelper7CompareIiiLPv0EEENS_15AssertionResultEPKcS6_RKT_RKT0_
FN:1374,_ZN7testing8internal8EqHelper7CompareImiLPv0EEENS_15AssertionResultEPKcS6_RKT_RKT0_
FNDA:16,_ZN7testing8internal8EqHelper7CompareImiLPv0EEENS_15AssertionResultEPKcS6_RKT_RKT0_
DA:244,0
DA:252,0
DA:257,0
DA:258,0
DA:339,0
DA:1338,0
DA:1343,0
DA:1338,0
DA:1343,0
DA:1355,24
DA:1358,24
DA:1359,24
DA:1362,0
DA:1355,16
DA:1358,16
DA:1359,16
DA:1362,0
DA:1374,24
DA:1377,24
DA:1374,16
DA:1377,16
end_of_record
SF:/usr/include/c++/9/tuple
FN:113,_ZNSt10_Head_baseILm1ESt14default_deleteINSt7__cxx1118basic_stringstreamIcSt11char_traitsIcESaIcEEEELb1EE7_M_headERS8_
FNDA:85,_ZNSt10_Head_baseILm1ESt14default_deleteINSt7__cxx1118basic_stringstreamIcSt11char_traitsIcESaIcEEEELb1EE7_M_headERS8_
FN:113,_ZNSt10_Head_baseILm1ESt14default_deleteINSt7__cxx1112basic_stringIcSt11char_traitsIcESaIcEEEELb1EE7_M_headERS8_
FNDA:0,_ZNSt10_Head_baseILm1ESt14default_deleteINSt7__cxx1112basic_stringIcSt11char_traitsIcESaIcEEEELb1EE7_M_headERS8_
FN:160,_ZNSt10_Head_baseILm0EPNSt7__cxx1112basic_stringIcSt11char_traitsIcESaIcEEELb0EE7_M_headERS7_
FNDA:42,_ZNSt10_Head_baseILm0EPNSt7__cxx1112basic_stringIcSt11char_traitsIcESaIcEEELb0EE7_M_headERS7_
FN:160,_ZNSt10_Head_baseILm0EPNSt7__cxx1118basic_stringstreamIcSt11char_traitsIcESaIcEEELb0EE7_M_headERS7_
FNDA:170,_ZNSt10_Head_baseILm0EPNSt7__cxx1118basic_stringstreamIcSt11char_traitsIcESaIcEEELb0EE7_M_headERS7_
FN:163,_ZNSt10_Head_baseILm0EPNSt7__cxx1112basic_stringIcSt11char_traitsIcESaIcEEELb0EE7_M_headERKS7_
FNDA:0,_ZNSt10_Head_baseILm0EPNSt7__cxx1112basic_stringIcSt11char_traitsIcESaIcEEELb0EE7_M_headERKS7_
FN:195,_ZNSt11_Tuple_implILm0EJPNSt7__cxx1112basic_stringIcSt11char_traitsIcESaIcEEESt14default_deleteIS5_EEE7_M_headERS9_
FNDA:42,_ZNSt11_Tuple_implILm0EJPNSt7__cxx1112basic_stringIcSt11char_traitsIcESaIcEEESt14default_deleteIS5_EEE7_M_headERS9_
FN:195,_ZNSt11_Tuple_implILm0EJPNSt7__cxx1118basic_stringstreamIcSt11char_traitsIcESaIcEEESt14default_deleteIS5_EEE7_M_headERS9_
FNDA:170,_ZNSt11_Tuple_implILm0EJPNSt7__cxx1118basic_stringstreamIcSt11char_traitsIcESaIcEEESt14default_deleteIS5_EEE7_M_headERS9_
FN:198,_ZNSt11_Tuple_implILm0EJPNSt7__cxx1112basic_stringIcSt11char_traitsIcESaIcEEESt14default_deleteIS5_EEE7_M_headERKS9_
FNDA:0,_ZNSt11_Tuple_implILm0EJPNSt7__cxx1112basic_stringIcSt11char_traitsIcESaIcEEESt14default_deleteIS5_EEE7_M_headERKS9_
FN:334,_ZNSt11_Tuple_implILm1EJSt14default_deleteINSt7__cxx1112basic_stringIcSt11char_traitsIcESaIcEEEEEE7_M_headERS8_
FNDA:0,_ZNSt11_Tuple_implILm1EJSt14default_deleteINSt7__cxx1112basic_stringIcSt11char_traitsIcESaIcEEEEEE7_M_headERS8_
FN:334,_ZNSt11_Tuple_implILm1EJSt14default_deleteINSt7__cxx1118basic_stringstreamIcSt11char_traitsIcESaIcEEEEEE7_M_headERS8_
FNDA:85,_ZNSt11_Tuple_implILm1EJSt14default_deleteINSt7__cxx1118basic_stringstreamIcSt11char_traitsIcESaIcEEEEEE7_M_headERS8_
FN:1309,_ZSt12__get_helperILm1ESt14default_deleteINSt7__cxx1118basic_stringstreamIcSt11char_traitsIcESaIcEEEEJEERT0_RSt11_Tuple_implIXT_EJS8_DpT1_EE
FNDA:85,_ZSt12__get_helperILm1ESt14default_deleteINSt7__cxx1118basic_stringstreamIcSt11char_traitsIcESaIcEEEEJEERT0_RSt11_Tuple_implIXT_EJS8_DpT1_EE
FN:1309,_ZSt12__get_helperILm0EPNSt7__cxx1118basic_stringstreamIcSt11char_traitsIcESaIcEEEJSt14default_deleteIS5_EEERT0_RSt11_Tuple_implIXT_EJS9_DpT1_EE
FNDA:170,_ZSt12__get_helperILm0EPNSt7__cxx1118basic_stringstreamIcSt11char_traitsIcESaIcEEEJSt14default_deleteIS5_EEERT0_RSt11_Tuple_implIXT_EJS9_DpT1_EE
FN:1309,_ZSt12__get_helperILm0EPNSt7__cxx1112basic_stringIcSt11char_traitsIcESaIcEEEJSt14default_deleteIS5_EEERT0_RSt11_Tuple_implIXT_EJS9_DpT1_EE
FNDA:42,_ZSt12__get_helperILm0EPNSt7__cxx1112basic_stringIcSt11char_traitsIcESaIcEEEJSt14default_deleteIS5_EEERT0_RSt11_Tuple_implIXT_EJS9_DpT1_EE
FN:1309,_ZSt12__get_helperILm1ESt14default_deleteINSt7__cxx1112basic_stringIcSt11char_traitsIcESaIcEEEEJEERT0_RSt11_Tuple_implIXT_EJS8_DpT1_EE
FNDA:0,_ZSt12__get_helperILm1ESt14default_deleteINSt7__cxx1112basic_stringIcSt11char_traitsIcESaIcEEEEJEERT0_RSt11_Tuple_implIXT_EJS8_DpT1_EE
FN:1314,_ZSt12__get_helperILm0EPNSt7__cxx1112basic_stringIcSt11char_traitsIcESaIcEEEJSt14default_deleteIS5_EEERKT0_RKSt11_Tuple_implIXT_EJS9_DpT1_EE
FNDA:0,_ZSt12__get_helperILm0EPNSt7__cxx1112basic_stringIcSt11char_traitsIcESaIcEEEJSt14default_deleteIS5_EEERKT0_RKSt11_Tuple_implIXT_EJS9_DpT1_EE
FN:1320,_ZSt3getILm1EJPNSt7__cxx1112basic_stringIcSt11char_traitsIcESaIcEEESt14default_deleteIS5_EEERNSt13tuple_elementIXT_ESt5tupleIJDpT0_EEE4typeERSD_
FNDA:0,_ZSt3getILm1EJPNSt7__cxx1112basic_stringIcSt11char_traitsIcESaIcEEESt14default_deleteIS5_EEERNSt13tuple_elementIXT_ESt5tupleIJDpT0_EEE4typeERSD_
FN:1320,_ZSt3getILm1EJPNSt7__cxx1118basic_stringstreamIcSt11char_traitsIcESaIcEEESt14default_deleteIS5_EEERNSt13tuple_elementIXT_ESt5tupleIJDpT0_EEE4typeERSD_
FNDA:85,_ZSt3getILm1EJPNSt7__cxx1118basic_stringstreamIcSt11char_traitsIcESaIcEEESt14default_deleteIS5_EEERNSt13tuple_elementIXT_ESt5tupleIJDpT0_EEE4typeERSD_
FN:1320,_ZSt3getILm0EJPNSt7__cxx1112basic_stringIcSt11char_traitsIcESaIcEEESt14default_deleteIS5_EEERNSt13tuple_elementIXT_ESt5tupleIJDpT0_EEE4typeERSD_
FNDA:42,_ZSt3getILm0EJPNSt7__cxx1112basic_stringIcSt11char_traitsIcESaIcEEESt14default_deleteIS5_EEERNSt13tuple_elementIXT_ESt5tupleIJDpT0_EEE4typeERSD_
FN:1320,_ZSt3getILm0EJPNSt7__cxx1118basic_stringstreamIcSt11char_traitsIcESaIcEEESt14default_deleteIS5_EEERNSt13tuple_elementIXT_ESt5tupleIJDpT0_EEE4typeERSD_
FNDA:170,_ZSt3getILm0EJPNSt7__cxx1118basic_stringstreamIcSt11char_traitsIcESaIcEEESt14default_deleteIS5_EEERNSt13tuple_elementIXT_ESt5tupleIJDpT0_EEE4typeERSD_
FN:1326,_ZSt3getILm0EJPNSt7__cxx1112basic_stringIcSt11char_traitsIcESaIcEEESt14default_deleteIS5_EEERKNSt13tuple_elementIXT_ESt5tupleIJDpT0_EEE4typeERKSD_
FNDA:0,_ZSt3getILm0EJPNSt7__cxx1112basic_stringIcSt11char_traitsIcESaIcEEESt14default_deleteIS5_EEERKNSt13tuple_elementIXT_ESt5tupleIJDpT0_EEE4typeERKSD_
DA:113,0
DA:113,85
DA:160,42
DA:160,170
DA:163,0
DA:195,42
DA:195,170
DA:198,0
DA:334,0
DA:334,85
DA:1309,0
DA:1310,0
DA:1309,85
DA:1310,85
DA:1309,42
DA:1310,42
DA:1309,170
DA:1310,170
DA:1314,0
DA:1315,0
DA:1320,0
DA:1321,0
DA:1320,85
DA:1321,85
DA:1320,42
DA:1321,42
DA:1320,170
DA:1321,170
DA:1326,0
DA:1327,0
end_of_record
SF:/usr/local/include/gtest/gtest-printers.h
FN:213,_ZN7testing8internal52internal_stream_operator_without_lexical_name_lookup13StreamPrinter10PrintValueImvRSoEEvRKT_PSo
FNDA:0,_ZN7testing8internal52internal_stream_operator_without_lexical_name_lookup13StreamPrinter10PrintValueImvRSoEEvRKT_PSo
FN:213,_ZN7testing8internal52internal_stream_operator_without_lexical_name_lookup13StreamPrinter10PrintValueIivRSoEEvRKT_PSo
FNDA:0,_ZN7testing8internal52internal_stream_operator_without_lexical_name_lookup13StreamPrinter10PrintValueIivRSoEEvRKT_PSo
FN:305,_ZN7testing8internal17PrintWithFallbackIiEEvRKT_PSo
FNDA:0,_ZN7testing8internal17PrintWithFallbackIiEEvRKT_PSo
FN:305,_ZN7testing8internal17PrintWithFallbackImEEvRKT_PSo
FNDA:0,_ZN7testing8internal17PrintWithFallbackImEEvRKT_PSo
FN:332,_ZN7testing8internal19FormatForComparisonImiE6FormatB5cxx11ERKm
FNDA:0,_ZN7testing8internal19FormatForComparisonImiE6FormatB5cxx11ERKm
FN:332,_ZN7testing8internal19FormatForComparisonIimE6FormatB5cxx11ERKi
FNDA:0,_ZN7testing8internal19FormatForComparisonIimE6FormatB5cxx11ERKi
FN:332,_ZN7testing8internal19FormatForComparisonIiiE6FormatB5cxx11ERKi
FNDA:0,_ZN7testing8internal19FormatForComparisonIiiE6FormatB5cxx11ERKi
FN:412,_ZN7testing8internal33FormatForComparisonFailureMessageImiEENSt7__cxx1112basic_stringIcSt11char_traitsIcESaIcEEERKT_RKT0_
FNDA:0,_ZN7testing8internal33FormatForComparisonFailureMessageImiEENSt7__cxx1112basic_stringIcSt11char_traitsIcESaIcEEERKT_RKT0_
FN:412,_ZN7testing8internal33FormatForComparisonFailureMessageIimEENSt7__cxx1112basic_stringIcSt11char_traitsIcESaIcEEERKT_RKT0_
FNDA:0,_ZN7testing8internal33FormatForComparisonFailureMessageIimEENSt7__cxx1112basic_stringIcSt11char_traitsIcESaIcEEERKT_RKT0_
FN:412,_ZN7testing8internal33FormatForComparisonFailureMessageIiiEENSt7__cxx1112basic_stringIcSt11char_traitsIcESaIcEEERKT_RKT0_
FNDA:0,_ZN7testing8internal33FormatForComparisonFailureMessageIiiEENSt7__cxx1112basic_stringIcSt11char_traitsIcESaIcEEERKT_RKT0_
FN:439,_ZN7testing8internal7PrintToImEEvRKT_PSo
FNDA:0,_ZN7testing8internal7PrintToImEEvRKT_PSo
FN:439,_ZN7testing8internal7PrintToIiEEvRKT_PSo
FNDA:0,_ZN7testing8internal7PrintToIiEEvRKT_PSo
FN:693,_ZN7testing8internal16UniversalPrinterImE5PrintERKmPSo
FNDA:0,_ZN7testing8internal16UniversalPrinterImE5PrintERKmPSo
FN:693,_ZN7testing8internal16UniversalPrinterIiE5PrintERKiPSo
FNDA:0,_ZN7testing8internal16UniversalPrinterIiE5PrintERKiPSo
FN:883,_ZN7testing8internal21UniversalTersePrinterIiE5PrintERKiPSo
FNDA:0,_ZN7testing8internal21UniversalTersePrinterIiE5PrintERKiPSo
FN:883,_ZN7testing8internal21UniversalTersePrinterImE5PrintERKmPSo
FNDA:0,_ZN7testing8internal21UniversalTersePrinterImE5PrintERKmPSo
FN:995,_ZN7testing8internal14UniversalPrintImEEvRKT_PSo
FNDA:0,_ZN7testing8internal14UniversalPrintImEEvRKT_PSo
FN:995,_ZN7testing8internal14UniversalPrintIiEEvRKT_PSo
FNDA:0,_ZN7testing8internal14UniversalPrintIiEEvRKT_PSo
FN:1035,_ZN7testing13PrintToStringIiEENSt7__cxx1112basic_stringIcSt11char_traitsIcESaIcEEERKT_
FNDA:0,_ZN7testing13PrintToStringIiEENSt7__cxx1112basic_stringIcSt11char_traitsIcESaIcEEERKT_
FN:1035,_ZN7testing13PrintToStringImEENSt7__cxx1112basic_stringIcSt11char_traitsIcESaIcEEERKT_
FNDA:0,_ZN7testing13PrintToStringImEENSt7__cxx1112basic_stringIcSt11char_traitsIcESaIcEEERKT_
DA:213,0
DA:216,0
DA:217,0
DA:213,0
DA:216,0
DA:217,0
DA:305,0
DA:311,0
DA:312,0
DA:305,0
DA:311,0
DA:312,0
DA:332,0
DA:333,0
DA:332,0
DA:333,0
DA:332,0
DA:333,0
DA:412,0
DA:414,0
DA:412,0
DA:414,0
DA:412,0
DA:414,0
DA:439,0
DA:440,0
DA:441,0
DA:439,0
DA:440,0
DA:441,0
DA:693,0
DA:702,0
DA:703,0
DA:693,0
DA:702,0
DA:703,0
DA:883,0
DA:884,0
DA:885,0
DA:883,0
DA:884,0
DA:885,0
DA:995,0
DA:999,0
DA:1000,0
DA:995,0
DA:999,0
DA:1000,0
DA:1035,0
DA:1036,0
DA:1037,0
DA:1038,0
DA:1035,0
DA:1036,0
DA:1037,0
DA:1038,0
end_of_record
SF:/usr/include/c++/9/bits/basic_string.tcc
FN:132,_ZNSt7__cxx1112basic_stringIcSt11char_traitsIcESaIcEE9_M_createERmm
FNDA:0,_ZNSt7__cxx1112basic_stringIcSt11char_traitsIcESaIcEE9_M_createERmm
FN:206,_ZNSt7__cxx1112basic_stringIcSt11char_traitsIcESaIcEE12_M_constructIPcEEvT_S7_St20forward_iterator_tag
FNDA:275,_ZNSt7__cxx1112basic_stringIcSt11char_traitsIcESaIcEE12_M_constructIPcEEvT_S7_St20forward_iterator_tag
FN:206,_ZNSt7__cxx1112basic_stringIcSt11char_traitsIcESaIcEE12_M_constructIPKcEEvT_S8_St20forward_iterator_tag
FNDA:0,_ZNSt7__cxx1112basic_stringIcSt11char_traitsIcESaIcEE12_M_constructIPKcEEvT_S8_St20forward_iterator_tag
DA:132,0
DA:137,0
DA:138,0
DA:143,0
DA:145,0
DA:147,0
DA:148,0
DA:153,0
DA:206,275
DA:211,275
DA:212,0
DA:215,275
DA:217,275
DA:219,136
DA:220,136
DA:225,275
DA:232,275
DA:233,275
DA:206,0
DA:211,0
DA:212,0
DA:215,0
DA:217,0
DA:219,0
DA:220,0
DA:225,0
DA:232,0
DA:233,0
end_of_record
SF:/usr/include/c++/9/bits/stl_iterator.h
FN:803,_ZN9__gnu_cxx17__normal_iteratorIPP9FrameTypeSt6vectorIS2_SaIS2_EEEC2ERKS3_
FNDA:0,_ZN9__gnu_cxx17__normal_iteratorIPP9FrameTypeSt6vectorIS2_SaIS2_EEEC2ERKS3_
FN:816,_ZNK9__gnu_cxx17__normal_iteratorIPP9FrameTypeSt6vectorIS2_SaIS2_EEEdeEv
FNDA:0,_ZNK9__gnu_cxx17__normal_iteratorIPP9FrameTypeSt6vectorIS2_SaIS2_EEEdeEv
FN:824,_ZN9__gnu_cxx17__normal_iteratorIPP9FrameTypeSt6vectorIS2_SaIS2_EEEppEv
FNDA:273,_ZN9__gnu_cxx17__normal_iteratorIPP9FrameTypeSt6vectorIS2_SaIS2_EEEppEv
FN:868,_ZNK9__gnu_cxx17__normal_iteratorIPP9FrameTypeSt6vectorIS2_SaIS2_EEE4baseEv
FNDA:0,_ZNK9__gnu_cxx17__normal_iteratorIPP9FrameTypeSt6vectorIS2_SaIS2_EEE4baseEv
FN:904,_ZN9__gnu_cxxneIPP9FrameTypeSt6vectorIS2_SaIS2_EEEEbRKNS_17__normal_iteratorIT_T0_EESC_
FNDA:303,_ZN9__gnu_cxxneIPP9FrameTypeSt6vectorIS2_SaIS2_EEEEbRKNS_17__normal_iteratorIT_T0_EESC_
DA:803,0
DA:804,0
DA:816,0
DA:817,0
DA:824,273
DA:826,273
DA:827,273
DA:868,0
DA:869,0
DA:904,303
DA:907,303
end_of_record
TN:
SF:/usr/local/include/gtest/gtest.h
FN:2293,_Z13RUN_ALL_TESTSv
FNDA:1,_Z13RUN_ALL_TESTSv
DA:2293,1
end_of_record
SF:/usr/include/c++/9/iostream
end_of_record
SF:/home/shiv/demo/gtest/bowlinggame/unit_testing/test_main.cpp
FN:4,main
FNDA:1,main
DA:4,1
DA:5,1
DA:6,1
DA:7,1
end_of_record
TN:
SF:/home/shiv/demo/gtest/bowlinggame/app/include/utility.hpp
FN:7,_Z17getValidatedInputRKNSt7__cxx1112basic_stringIcSt11char_traitsIcESaIcEEEii
FNDA:222,_Z17getValidatedInputRKNSt7__cxx1112basic_stringIcSt11char_traitsIcESaIcEEEii
DA:7,224
DA:12,224
DA:13,224
DA:14,224
DA:16,2
DA:24,222
end_of_record
SF:/usr/include/c++/9/utility
FN:179,_ZNSt10__pair_getILm0EE10__move_getIiiEEOT_OSt4pairIS2_T0_E
FNDA:141,_ZNSt10__pair_getILm0EE10__move_getIiiEEOT_OSt4pairIS2_T0_E
FN:203,_ZNSt10__pair_getILm1EE10__move_getIiiEEOT0_OSt4pairIT_S2_E
FNDA:141,_ZNSt10__pair_getILm1EE10__move_getIiiEEOT0_OSt4pairIT_S2_E
FN:224,_ZSt3getILm1EiiEONSt13tuple_elementIXT_ESt4pairIT0_T1_EE4typeEOS4_
FNDA:141,_ZSt3getILm1EiiEONSt13tuple_elementIXT_ESt4pairIT0_T1_EE4typeEOS4_
FN:224,_ZSt3getILm0EiiEONSt13tuple_elementIXT_ESt4pairIT0_T1_EE4typeEOS4_
FNDA:141,_ZSt3getILm0EiiEONSt13tuple_elementIXT_ESt4pairIT0_T1_EE4typeEOS4_
DA:179,141
DA:180,141
DA:203,141
DA:204,141
DA:224,141
DA:225,141
DA:224,141
DA:225,141
end_of_record
SF:/usr/include/c++/9/bits/move.h
FN:47,_ZSt11__addressofIKcEPT_RS1_
FNDA:1909,_ZSt11__addressofIKcEPT_RS1_
FN:47,_ZSt11__addressofIcEPT_RS0_
FNDA:1333,_ZSt11__addressofIcEPT_RS0_
FN:74,_ZSt7forwardIOiEOT_RNSt16remove_referenceIS1_E4typeE
FNDA:60,_ZSt7forwardIOiEOT_RNSt16remove_referenceIS1_E4typeE
FN:74,_ZSt7forwardIiEOT_RNSt16remove_referenceIS0_E4typeE
FNDA:988,_ZSt7forwardIiEOT_RNSt16remove_referenceIS0_E4typeE
FN:99,_ZSt4moveIRSt4pairIiiEEONSt16remove_referenceIT_E4typeEOS4_
FNDA:282,_ZSt4moveIRSt4pairIiiEEONSt16remove_referenceIT_E4typeEOS4_
FN:138,_ZSt9addressofIKcEPT_RS1_
FNDA:1909,_ZSt9addressofIKcEPT_RS1_
FN:138,_ZSt9addressofIcEPT_RS0_
FNDA:1333,_ZSt9addressofIcEPT_RS0_
DA:47,1909
DA:48,1909
DA:47,1333
DA:48,1333
DA:74,60
DA:75,60
DA:74,988
DA:75,988
DA:99,282
DA:100,282
DA:138,1909
DA:139,1909
DA:138,1333
DA:139,1333
end_of_record
SF:/usr/include/c++/9/bits/stl_iterator_base_funcs.h
FN:98,_ZSt10__distanceIPKcENSt15iterator_traitsIT_E15difference_typeES3_S3_St26random_access_iterator_tag
FNDA:685,_ZSt10__distanceIPKcENSt15iterator_traitsIT_E15difference_typeES3_S3_St26random_access_iterator_tag
FN:138,_ZSt8distanceIPKcENSt15iterator_traitsIT_E15difference_typeES3_S3_
FNDA:685,_ZSt8distanceIPKcENSt15iterator_traitsIT_E15difference_typeES3_S3_
DA:98,685
DA:104,685
DA:138,685
DA:141,685
DA:142,1370
end_of_record
SF:/home/shiv/demo/gtest/bowlinggame/app/include/FrameType.hpp
FN:17,_ZN9FrameType13setFrameScoreEi
FNDA:140,_ZN9FrameType13setFrameScoreEi
DA:17,140
DA:19,140
DA:20,140
end_of_record
SF:/usr/include/c++/9/tuple
FN:160,_ZNSt10_Head_baseILm2EiLb0EE7_M_headERS0_
FNDA:78,_ZNSt10_Head_baseILm2EiLb0EE7_M_headERS0_
FN:160,_ZNSt10_Head_baseILm1EiLb0EE7_M_headERS0_
FNDA:78,_ZNSt10_Head_baseILm1EiLb0EE7_M_headERS0_
FN:160,_ZNSt10_Head_baseILm0EiLb0EE7_M_headERS0_
FNDA:81,_ZNSt10_Head_baseILm0EiLb0EE7_M_headERS0_
FN:195,_ZNSt11_Tuple_implILm1EJiiEE7_M_headERS0_
FNDA:78,_ZNSt11_Tuple_implILm1EJiiEE7_M_headERS0_
FN:195,_ZNSt11_Tuple_implILm0EJiiiEE7_M_headERS0_
FNDA:81,_ZNSt11_Tuple_implILm0EJiiiEE7_M_headERS0_
FN:334,_ZNSt11_Tuple_implILm2EJiEE7_M_headERS0_
FNDA:78,_ZNSt11_Tuple_implILm2EJiEE7_M_headERS0_
FN:1309,_ZSt12__get_helperILm2EiJEERT0_RSt11_Tuple_implIXT_EJS0_DpT1_EE
FNDA:20,_ZSt12__get_helperILm2EiJEERT0_RSt11_Tuple_implIXT_EJS0_DpT1_EE
FN:1309,_ZSt12__get_helperILm1EiJiEERT0_RSt11_Tuple_implIXT_EJS0_DpT1_EE
FNDA:20,_ZSt12__get_helperILm1EiJiEERT0_RSt11_Tuple_implIXT_EJS0_DpT1_EE
FN:1309,_ZSt12__get_helperILm0EiJiiEERT0_RSt11_Tuple_implIXT_EJS0_DpT1_EE
FNDA:23,_ZSt12__get_helperILm0EiJiiEERT0_RSt11_Tuple_implIXT_EJS0_DpT1_EE
FN:1320,_ZSt3getILm2EJiiiEERNSt13tuple_elementIXT_ESt5tupleIJDpT0_EEE4typeERS4_
FNDA:20,_ZSt3getILm2EJiiiEERNSt13tuple_elementIXT_ESt5tupleIJDpT0_EEE4typeERS4_
FN:1320,_ZSt3getILm1EJiiiEERNSt13tuple_elementIXT_ESt5tupleIJDpT0_EEE4typeERS4_
FNDA:20,_ZSt3getILm1EJiiiEERNSt13tuple_elementIXT_ESt5tupleIJDpT0_EEE4typeERS4_
FN:1320,_ZSt3getILm0EJiiiEERNSt13tuple_elementIXT_ESt5tupleIJDpT0_EEE4typeERS4_
FNDA:23,_ZSt3getILm0EJiiiEERNSt13tuple_elementIXT_ESt5tupleIJDpT0_EEE4typeERS4_
FN:1332,_ZSt3getILm2EJiiiEEONSt13tuple_elementIXT_ESt5tupleIJDpT0_EEE4typeEOS4_
FNDA:20,_ZSt3getILm2EJiiiEEONSt13tuple_elementIXT_ESt5tupleIJDpT0_EEE4typeEOS4_
FN:1332,_ZSt3getILm1EJiiiEEONSt13tuple_elementIXT_ESt5tupleIJDpT0_EEE4typeEOS4_
FNDA:20,_ZSt3getILm1EJiiiEEONSt13tuple_elementIXT_ESt5tupleIJDpT0_EEE4typeEOS4_
FN:1332,_ZSt3getILm0EJiiiEEONSt13tuple_elementIXT_ESt5tupleIJDpT0_EEE4typeEOS4_
FNDA:20,_ZSt3getILm0EJiiiEEONSt13tuple_elementIXT_ESt5tupleIJDpT0_EEE4typeEOS4_
DA:160,78
DA:160,78
DA:160,81
DA:195,78
DA:195,81
DA:334,78
DA:1309,20
DA:1310,20
DA:1309,20
DA:1310,20
DA:1309,23
DA:1310,23
DA:1320,20
DA:1321,20
DA:1320,20
DA:1321,20
DA:1320,23
DA:1321,23
DA:1332,20
DA:1335,20
DA:1332,20
DA:1335,20
DA:1332,20
DA:1335,20
end_of_record
SF:/home/shiv/demo/gtest/bowlinggame/app/src/BowlingGame.cpp
FN:9,_ZN11BowlingGame8getInputERS_
FNDA:12,_ZN11BowlingGame8getInputERS_
FN:70,_ZN11BowlingGame19CalculateTotalScoreEv
FNDA:14,_ZN11BowlingGame19CalculateTotalScoreEv
DA:9,12
DA:13,111
DA:16,100
DA:17,100
DA:20,100
DA:22,1
DA:26,99
DA:29,100
DA:31,1
DA:34,99
DA:38,11
DA:39,11
DA:40,11
DA:42,11
DA:44,1
DA:48,10
DA:51,11
DA:53,1
DA:56,10
DA:58,2
DA:61,10
DA:63,4
DA:65,2
DA:66,2
DA:68,12
DA:70,14
DA:72,154
DA:74,140
DA:76,126
DA:77,126
DA:79,17
DA:80,17
DA:82,10
DA:83,10
DA:85,8
DA:86,8
DA:90,2
DA:91,2
DA:94,7
DA:96,3
DA:97,3
DA:99,2
DA:100,2
DA:104,1
DA:105,1
DA:110,4
DA:111,4
DA:113,2
DA:114,2
DA:118,2
DA:119,2
DA:123,109
DA:125,2
DA:126,2
DA:128,1
DA:129,1
DA:133,1
DA:134,1
DA:139,107
DA:140,107
DA:141,107
DA:146,14
DA:147,14
DA:149,3
DA:150,3
DA:152,11
DA:154,1
DA:155,1
DA:159,10
DA:160,10
DA:163,140
DA:165,14
end_of_record
SF:/usr/include/c++/9/bits/basic_string.tcc
FN:132,_ZNSt7__cxx1112basic_stringIcSt11char_traitsIcESaIcEE9_M_createERmm
FNDA:610,_ZNSt7__cxx1112basic_stringIcSt11char_traitsIcESaIcEE9_M_createERmm
FN:206,_ZNSt7__cxx1112basic_stringIcSt11char_traitsIcESaIcEE12_M_constructIPKcEEvT_S8_St20forward_iterator_tag
FNDA:685,_ZNSt7__cxx1112basic_stringIcSt11char_traitsIcESaIcEE12_M_constructIPKcEEvT_S8_St20forward_iterator_tag
DA:132,610
DA:137,610
DA:138,0
DA:143,610
DA:145,86
DA:147,86
DA:148,0
DA:153,610
DA:206,685
DA:211,685
DA:212,0
DA:215,685
DA:217,685
DA:219,317
DA:220,317
DA:225,685
DA:232,685
DA:233,685
end_of_record
SF:/usr/include/c++/9/ext/type_traits.h
FN:152,_ZN9__gnu_cxx17__is_null_pointerIKcEEbPT_
FNDA:685,_ZN9__gnu_cxx17__is_null_pointerIKcEEbPT_
DA:152,685
DA:153,685
end_of_record
SF:/usr/include/c++/9/bits/alloc_traits.h
FN:442,_ZNSt16allocator_traitsISaIcEE8allocateERS0_m
FNDA:610,_ZNSt16allocator_traitsISaIcEE8allocateERS0_m
FN:468,_ZNSt16allocator_traitsISaIcEE10deallocateERS0_Pcm
FNDA:573,_ZNSt16allocator_traitsISaIcEE10deallocateERS0_Pcm
FN:504,_ZNSt16allocator_traitsISaIcEE8max_sizeERKS0_
FNDA:856,_ZNSt16allocator_traitsISaIcEE8max_sizeERKS0_
DA:442,610
DA:443,610
DA:468,573
DA:469,573
DA:504,856
DA:505,856
end_of_record
SF:/usr/include/c++/9/bits/stl_iterator_base_types.h
FN:205,_ZSt19__iterator_categoryIPKcENSt15iterator_traitsIT_E17iterator_categoryERKS3_
FNDA:685,_ZSt19__iterator_categoryIPKcENSt15iterator_traitsIT_E17iterator_categoryERKS3_
DA:205,685
DA:206,685
end_of_record
SF:/usr/include/c++/9/ext/new_allocator.h
FN:80,_ZN9__gnu_cxx13new_allocatorIcEC2Ev
FNDA:0,_ZN9__gnu_cxx13new_allocatorIcEC2Ev
FN:89,_ZN9__gnu_cxx13new_allocatorIcED2Ev
FNDA:0,_ZN9__gnu_cxx13new_allocatorIcED2Ev
FN:102,_ZN9__gnu_cxx13new_allocatorIcE8allocateEmPKv
FNDA:610,_ZN9__gnu_cxx13new_allocatorIcE8allocateEmPKv
FN:119,_ZN9__gnu_cxx13new_allocatorIcE10deallocateEPcm
FNDA:573,_ZN9__gnu_cxx13new_allocatorIcE10deallocateEPcm
FN:132,_ZNK9__gnu_cxx13new_allocatorIcE8max_sizeEv
FNDA:1466,_ZNK9__gnu_cxx13new_allocatorIcE8max_sizeEv
DA:80,0
DA:89,0
DA:102,610
DA:104,610
DA:105,0
DA:114,610
DA:119,573
DA:128,573
DA:132,1466
DA:135,1466
end_of_record
SF:/usr/include/c++/9/iostream
end_of_record
SF:/usr/include/c++/9/bits/stl_vector.h
FN:915,_ZNKSt6vectorIP9FrameTypeSaIS1_EE4sizeEv
FNDA:710,_ZNKSt6vectorIP9FrameTypeSaIS1_EE4sizeEv
FN:1040,_ZNSt6vectorIP9FrameTypeSaIS1_EEixEm
FNDA:311,_ZNSt6vectorIP9FrameTypeSaIS1_EEixEm
DA:915,710
DA:916,710
DA:1040,311
DA:1043,311
end_of_record
SF:/usr/include/c++/9/bits/char_traits.h
FN:100,_ZN9__gnu_cxx11char_traitsIcE2eqERKcS3_
FNDA:0,_ZN9__gnu_cxx11char_traitsIcE2eqERKcS3_
FN:161,_ZN9__gnu_cxx11char_traitsIcE6lengthEPKc
FNDA:0,_ZN9__gnu_cxx11char_traitsIcE6lengthEPKc
FN:299,_ZNSt11char_traitsIcE6assignERcRKc
FNDA:1624,_ZNSt11char_traitsIcE6assignERcRKc
FN:336,_ZNSt11char_traitsIcE6lengthEPKc
FNDA:891,_ZNSt11char_traitsIcE6lengthEPKc
FN:368,_ZNSt11char_traitsIcE4copyEPcPKcm
FNDA:1206,_ZNSt11char_traitsIcE4copyEPcPKcm
DA:100,0
DA:101,0
DA:161,0
DA:164,0
DA:165,0
DA:166,0
DA:167,0
DA:236,891
DA:299,1624
DA:300,1624
DA:336,891
DA:339,891
DA:340,0
DA:342,891
DA:368,1206
DA:370,1206
DA:371,9
DA:372,1197
end_of_record
SF:/usr/include/c++/9/bits/ptr_traits.h
FN:146,_ZNSt14pointer_traitsIPKcE10pointer_toERS0_
FNDA:1909,_ZNSt14pointer_traitsIPKcE10pointer_toERS0_
FN:146,_ZNSt14pointer_traitsIPcE10pointer_toERc
FNDA:1333,_ZNSt14pointer_traitsIPcE10pointer_toERc
DA:146,1909
DA:147,1909
DA:146,1333
DA:147,1333
end_of_record
SF:/usr/include/c++/9/bits/basic_string.h
FN:160,_ZNSt7__cxx1112basic_stringIcSt11char_traitsIcESaIcEE12_Alloc_hiderC2EPcRKS3_
FNDA:536,_ZNSt7__cxx1112basic_stringIcSt11char_traitsIcESaIcEE12_Alloc_hiderC2EPcRKS3_
FN:182,_ZNSt7__cxx1112basic_stringIcSt11char_traitsIcESaIcEE7_M_dataEPc
FNDA:697,_ZNSt7__cxx1112basic_stringIcSt11char_traitsIcESaIcEE7_M_dataEPc
FN:186,_ZNSt7__cxx1112basic_stringIcSt11char_traitsIcESaIcEE9_M_lengthEm
FNDA:1672,_ZNSt7__cxx1112basic_stringIcSt11char_traitsIcESaIcEE9_M_lengthEm
FN:190,_ZNKSt7__cxx1112basic_stringIcSt11char_traitsIcESaIcEE7_M_dataEv
FNDA:7617,_ZNKSt7__cxx1112basic_stringIcSt11char_traitsIcESaIcEE7_M_dataEv
FN:194,_ZNSt7__cxx1112basic_stringIcSt11char_traitsIcESaIcEE13_M_local_dataEv
FNDA:1333,_ZNSt7__cxx1112basic_stringIcSt11char_traitsIcESaIcEE13_M_local_dataEv
FN:204,_ZNKSt7__cxx1112basic_stringIcSt11char_traitsIcESaIcEE13_M_local_dataEv
FNDA:1909,_ZNKSt7__cxx1112basic_stringIcSt11char_traitsIcESaIcEE13_M_local_dataEv
FN:214,_ZNSt7__cxx1112basic_stringIcSt11char_traitsIcESaIcEE11_M_capacityEm
FNDA:570,_ZNSt7__cxx1112basic_stringIcSt11char_traitsIcESaIcEE11_M_capacityEm
FN:218,_ZNSt7__cxx1112basic_stringIcSt11char_traitsIcESaIcEE13_M_set_lengthEm
FNDA:1545,_ZNSt7__cxx1112basic_stringIcSt11char_traitsIcESaIcEE13_M_set_lengthEm
FN:225,_ZNKSt7__cxx1112basic_stringIcSt11char_traitsIcESaIcEE11_M_is_localEv
FNDA:1909,_ZNKSt7__cxx1112basic_stringIcSt11char_traitsIcESaIcEE11_M_is_localEv
FN:233,_ZNSt7__cxx1112basic_stringIcSt11char_traitsIcESaIcEE10_M_disposeEv
FNDA:1516,_ZNSt7__cxx1112basic_stringIcSt11char_traitsIcESaIcEE10_M_disposeEv
FN:240,_ZNSt7__cxx1112basic_stringIcSt11char_traitsIcESaIcEE10_M_destroyEm
FNDA:573,_ZNSt7__cxx1112basic_stringIcSt11char_traitsIcESaIcEE10_M_destroyEm
FN:247,_ZNSt7__cxx1112basic_stringIcSt11char_traitsIcESaIcEE16_M_construct_auxIPKcEEvT_S8_St12__false_type
FNDA:536,_ZNSt7__cxx1112basic_stringIcSt11char_traitsIcESaIcEE16_M_construct_auxIPKcEEvT_S8_St12__false_type
FN:267,_ZNSt7__cxx1112basic_stringIcSt11char_traitsIcESaIcEE12_M_constructIPKcEEvT_S8_
FNDA:536,_ZNSt7__cxx1112basic_stringIcSt11char_traitsIcESaIcEE12_M_constructIPKcEEvT_S8_
FN:290,_ZNSt7__cxx1112basic_stringIcSt11char_traitsIcESaIcEE16_M_get_allocatorEv
FNDA:1310,_ZNSt7__cxx1112basic_stringIcSt11char_traitsIcESaIcEE16_M_get_allocatorEv
FN:294,_ZNKSt7__cxx1112basic_stringIcSt11char_traitsIcESaIcEE16_M_get_allocatorEv
FNDA:1131,_ZNKSt7__cxx1112basic_stringIcSt11char_traitsIcESaIcEE16_M_get_allocatorEv
FN:350,_ZNSt7__cxx1112basic_stringIcSt11char_traitsIcESaIcEE7_S_copyEPcPKcm
FNDA:1199,_ZNSt7__cxx1112basic_stringIcSt11char_traitsIcESaIcEE7_S_copyEPcPKcm
FN:400,_ZNSt7__cxx1112basic_stringIcSt11char_traitsIcESaIcEE13_S_copy_charsEPcPKcS7_
FNDA:685,_ZNSt7__cxx1112basic_stringIcSt11char_traitsIcESaIcEE13_S_copy_charsEPcPKcS7_
FN:529,_ZNSt7__cxx1112basic_stringIcSt11char_traitsIcESaIcEEC2IS3_EEPKcRKS3_
FNDA:536,_ZNSt7__cxx1112basic_stringIcSt11char_traitsIcESaIcEEC2IS3_EEPKcRKS3_
FN:661,_ZNSt7__cxx1112basic_stringIcSt11char_traitsIcESaIcEED2Ev
FNDA:1440,_ZNSt7__cxx1112basic_stringIcSt11char_traitsIcESaIcEED2Ev
FN:945,_ZNKSt7__cxx1112basic_stringIcSt11char_traitsIcESaIcEE8max_sizeEv
FNDA:856,_ZNKSt7__cxx1112basic_stringIcSt11char_traitsIcESaIcEE8max_sizeEv
DA:160,536
DA:161,536
DA:182,697
DA:183,697
DA:186,1672
DA:187,1672
DA:190,7617
DA:191,7617
DA:194,1333
DA:197,1333
DA:204,1909
DA:207,1909
DA:214,570
DA:215,570
DA:218,1545
DA:220,1545
DA:221,1545
DA:222,1545
DA:225,1909
DA:226,1909
DA:233,1516
DA:235,1516
DA:236,573
DA:237,1516
DA:240,573
DA:241,573
DA:247,536
DA:251,536
DA:252,536
DA:267,536
DA:270,536
DA:271,536
DA:290,1310
DA:291,1310
DA:294,1131
DA:295,1131
DA:350,1199
DA:352,1199
DA:353,79
DA:355,1120
DA:356,1199
DA:400,685
DA:402,685
DA:529,536
DA:530,536
DA:531,536
DA:661,1440
DA:662,1440
DA:945,856
DA:946,856
end_of_record
TN:
SF:/usr/include/c++/9/bits/stl_pair.h
FN:229,_ZNSt4pairIiiEC2IiiLb1EEEv
FNDA:273,_ZNSt4pairIiiEC2IiiLb1EEEv
FN:341,_ZNSt4pairIiiEC2IiiLb1EEEOT_OT0_
FNDA:1,_ZNSt4pairIiiEC2IiiLb1EEEOT_OT0_
FN:341,_ZNSt4pairIiiEC2IRiS2_Lb1EEEOT_OT0_
FNDA:245,_ZNSt4pairIiiEC2IRiS2_Lb1EEEOT_OT0_
FN:389,_ZNSt4pairIiiEaSEOS0_
FNDA:246,_ZNSt4pairIiiEaSEOS0_
FN:524,_ZSt9make_pairIiiESt4pairINSt17__decay_and_stripIT_E6__typeENS1_IT0_E6__typeEEOS2_OS5_
FNDA:1,_ZSt9make_pairIiiESt4pairINSt17__decay_and_stripIT_E6__typeENS1_IT0_E6__typeEEOS2_OS5_
FN:524,_ZSt9make_pairIRiS0_ESt4pairINSt17__decay_and_stripIT_E6__typeENS2_IT0_E6__typeEEOS3_OS6_
FNDA:245,_ZSt9make_pairIRiS0_ESt4pairINSt17__decay_and_stripIT_E6__typeENS2_IT0_E6__typeEEOS3_OS6_
DA:229,273
DA:230,273
DA:341,1
DA:342,1
DA:341,245
DA:342,245
DA:389,246
DA:396,246
DA:397,246
DA:398,246
DA:524,1
DA:529,1
DA:524,245
DA:529,245
end_of_record
SF:/home/shiv/demo/gtest/bowlinggame/app/src/FrameFactory.cpp
FN:9,_ZN12FrameFactory11createFrameER11BowlingGameRKNSt7__cxx1112basic_stringIcSt11char_traitsIcESaIcEEEiii
FNDA:274,_ZN12FrameFactory11createFrameER11BowlingGameRKNSt7__cxx1112basic_stringIcSt11char_traitsIcESaIcEEEiii
DA:9,274
DA:11,274
DA:13,245
DA:15,29
DA:17,28
DA:21,1
DA:23,273
end_of_record
SF:/usr/include/c++/9/bits/move.h
FN:74,_ZSt7forwardIP10TenthFrameEOT_RNSt16remove_referenceIS2_E4typeE
FNDA:86,_ZSt7forwardIP10TenthFrameEOT_RNSt16remove_referenceIS2_E4typeE
FN:74,_ZSt7forwardIP11NormalFrameEOT_RNSt16remove_referenceIS2_E4typeE
FNDA:868,_ZSt7forwardIP11NormalFrameEOT_RNSt16remove_referenceIS2_E4typeE
FN:74,_ZSt7forwardIRiEOT_RNSt16remove_referenceIS1_E4typeE
FNDA:1400,_ZSt7forwardIRiEOT_RNSt16remove_referenceIS1_E4typeE
FN:74,_ZSt7forwardIiEOT_RNSt16remove_referenceIS0_E4typeE
FNDA:0,_ZSt7forwardIiEOT_RNSt16remove_referenceIS0_E4typeE
FN:99,_ZSt4moveIRSt11_Tuple_implILm2EJiEEEONSt16remove_referenceIT_E4typeEOS4_
FNDA:29,_ZSt4moveIRSt11_Tuple_implILm2EJiEEEONSt16remove_referenceIT_E4typeEOS4_
FN:99,_ZSt4moveIRSt11_Tuple_implILm1EJiiEEEONSt16remove_referenceIT_E4typeEOS4_
FNDA:29,_ZSt4moveIRSt11_Tuple_implILm1EJiiEEEONSt16remove_referenceIT_E4typeEOS4_
FN:99,_ZSt4moveIRSt5tupleIJiiiEEEONSt16remove_referenceIT_E4typeEOS4_
FNDA:29,_ZSt4moveIRSt5tupleIJiiiEEEONSt16remove_referenceIT_E4typeEOS4_
DA:74,86
DA:75,86
DA:74,868
DA:75,868
DA:74,1400
DA:75,1400
DA:74,0
DA:75,0
DA:99,29
DA:100,29
DA:99,29
DA:100,29
DA:99,29
DA:100,29
end_of_record
SF:/usr/include/c++/9/bits/stl_iterator.h
FN:803,_ZN9__gnu_cxx17__normal_iteratorIPP9FrameTypeSt6vectorIS2_SaIS2_EEEC2ERKS3_
FNDA:876,_ZN9__gnu_cxx17__normal_iteratorIPP9FrameTypeSt6vectorIS2_SaIS2_EEEC2ERKS3_
FN:816,_ZNK9__gnu_cxx17__normal_iteratorIPP9FrameTypeSt6vectorIS2_SaIS2_EEEdeEv
FNDA:546,_ZNK9__gnu_cxx17__normal_iteratorIPP9FrameTypeSt6vectorIS2_SaIS2_EEEdeEv
FN:864,_ZNK9__gnu_cxx17__normal_iteratorIPP9FrameTypeSt6vectorIS2_SaIS2_EEEmiEl
FNDA:273,_ZNK9__gnu_cxx17__normal_iteratorIPP9FrameTypeSt6vectorIS2_SaIS2_EEEmiEl
FN:868,_ZNK9__gnu_cxx17__normal_iteratorIPP9FrameTypeSt6vectorIS2_SaIS2_EEE4baseEv
FNDA:1146,_ZNK9__gnu_cxx17__normal_iteratorIPP9FrameTypeSt6vectorIS2_SaIS2_EEE4baseEv
FN:986,_ZN9__gnu_cxxmiIPP9FrameTypeSt6vectorIS2_SaIS2_EEEENS_17__normal_iteratorIT_T0_E15difference_typeERKSA_SD_
FNDA:135,_ZN9__gnu_cxxmiIPP9FrameTypeSt6vectorIS2_SaIS2_EEEENS_17__normal_iteratorIT_T0_E15difference_typeERKSA_SD_
DA:803,876
DA:804,876
DA:816,546
DA:817,546
DA:864,273
DA:865,273
DA:868,1146
DA:869,1146
DA:986,135
DA:989,135
end_of_record
SF:/usr/include/c++/9/bits/basic_string.tcc
FN:1418,_ZNKSt7__cxx1112basic_stringIcSt11char_traitsIcESaIcEE7compareEPKc
FNDA:307,_ZNKSt7__cxx1112basic_stringIcSt11char_traitsIcESaIcEE7compareEPKc
DA:1418,307
DA:1422,307
DA:1423,307
DA:1424,307
DA:1425,307
DA:1426,307
DA:1427,277
DA:1428,307
end_of_record
SF:/usr/include/c++/9/bits/stl_uninitialized.h
FN:924,_ZSt14__relocate_a_1IP9FrameTypeS1_ENSt9enable_ifIXsrSt24__is_bitwise_relocatableIT_vE5valueEPS4_E4typeES6_S6_S6_RSaIT0_E
FNDA:270,_ZSt14__relocate_a_1IP9FrameTypeS1_ENSt9enable_ifIXsrSt24__is_bitwise_relocatableIT_vE5valueEPS4_E4typeES6_S6_S6_RSaIT0_E
FN:958,_ZSt12__relocate_aIPP9FrameTypeS2_SaIS1_EET0_T_S5_S4_RT1_
FNDA:270,_ZSt12__relocate_aIPP9FrameTypeS2_SaIS1_EET0_T_S5_S4_RT1_
DA:924,270
DA:927,270
DA:928,270
DA:929,106
DA:930,270
DA:958,270
DA:964,270
DA:966,270
end_of_record
SF:/usr/include/c++/9/tuple
FN:122,_ZNSt10_Head_baseILm1EiLb0EEC2Ev
FNDA:273,_ZNSt10_Head_baseILm1EiLb0EEC2Ev
FN:122,_ZNSt10_Head_baseILm0EiLb0EEC2Ev
FNDA:273,_ZNSt10_Head_baseILm0EiLb0EEC2Ev
FN:122,_ZNSt10_Head_baseILm2EiLb0EEC2Ev
FNDA:273,_ZNSt10_Head_baseILm2EiLb0EEC2Ev
FN:132,_ZNSt10_Head_baseILm2EiLb0EEC2IiEEOT_
FNDA:1,_ZNSt10_Head_baseILm2EiLb0EEC2IiEEOT_
FN:132,_ZNSt10_Head_baseILm1EiLb0EEC2IRiEEOT_
FNDA:28,_ZNSt10_Head_baseILm1EiLb0EEC2IRiEEOT_
FN:132,_ZNSt10_Head_baseILm2EiLb0EEC2IRiEEOT_
FNDA:28,_ZNSt10_Head_baseILm2EiLb0EEC2IRiEEOT_
FN:132,_ZNSt10_Head_baseILm0EiLb0EEC2IiEEOT_
FNDA:1,_ZNSt10_Head_baseILm0EiLb0EEC2IiEEOT_
FN:132,_ZNSt10_Head_baseILm1EiLb0EEC2IiEEOT_
FNDA:1,_ZNSt10_Head_baseILm1EiLb0EEC2IiEEOT_
FN:132,_ZNSt10_Head_baseILm0EiLb0EEC2IRiEEOT_
FNDA:28,_ZNSt10_Head_baseILm0EiLb0EEC2IRiEEOT_
FN:160,_ZNSt10_Head_baseILm2EiLb0EE7_M_headERS0_
FNDA:0,_ZNSt10_Head_baseILm2EiLb0EE7_M_headERS0_
FN:160,_ZNSt10_Head_baseILm0EiLb0EE7_M_headERS0_
FNDA:0,_ZNSt10_Head_baseILm0EiLb0EE7_M_headERS0_
FN:160,_ZNSt10_Head_baseILm1EiLb0EE7_M_headERS0_
FNDA:0,_ZNSt10_Head_baseILm1EiLb0EE7_M_headERS0_
FN:195,_ZNSt11_Tuple_implILm0EJiiiEE7_M_headERS0_
FNDA:0,_ZNSt11_Tuple_implILm0EJiiiEE7_M_headERS0_
FN:195,_ZNSt11_Tuple_implILm1EJiiEE7_M_headERS0_
FNDA:0,_ZNSt11_Tuple_implILm1EJiiEE7_M_headERS0_
FN:201,_ZNSt11_Tuple_implILm1EJiiEE7_M_tailERS0_
FNDA:58,_ZNSt11_Tuple_implILm1EJiiEE7_M_tailERS0_
FN:201,_ZNSt11_Tuple_implILm0EJiiiEE7_M_tailERS0_
FNDA:58,_ZNSt11_Tuple_implILm0EJiiiEE7_M_tailERS0_
FN:206,_ZNSt11_Tuple_implILm1EJiiEEC2Ev
FNDA:273,_ZNSt11_Tuple_implILm1EJiiEEC2Ev
FN:206,_ZNSt11_Tuple_implILm0EJiiiEEC2Ev
FNDA:273,_ZNSt11_Tuple_implILm0EJiiiEEC2Ev
FN:216,_ZNSt11_Tuple_implILm0EJiiiEEC2IiJiiEvEEOT_DpOT0_
FNDA:1,_ZNSt11_Tuple_implILm0EJiiiEEC2IiJiiEvEEOT_DpOT0_
FN:216,_ZNSt11_Tuple_implILm1EJiiEEC2IiJiEvEEOT_DpOT0_
FNDA:1,_ZNSt11_Tuple_implILm1EJiiEEC2IiJiEvEEOT_DpOT0_
FN:216,_ZNSt11_Tuple_implILm0EJiiiEEC2IRiJS2_S2_EvEEOT_DpOT0_
FNDA:28,_ZNSt11_Tuple_implILm0EJiiiEEC2IRiJS2_S2_EvEEOT_DpOT0_
FN:216,_ZNSt11_Tuple_implILm1EJiiEEC2IRiJS2_EvEEOT_DpOT0_
FNDA:28,_ZNSt11_Tuple_implILm1EJiiEEC2IRiJS2_EvEEOT_DpOT0_
FN:306,_ZNSt11_Tuple_implILm1EJiiEE9_M_assignIiJiEEEvOS_ILm1EJT_DpT0_EE
FNDA:29,_ZNSt11_Tuple_implILm1EJiiEE9_M_assignIiJiEEEvOS_ILm1EJT_DpT0_EE
FN:306,_ZNSt11_Tuple_implILm0EJiiiEE9_M_assignIiJiiEEEvOS_ILm0EJT_DpT0_EE
FNDA:29,_ZNSt11_Tuple_implILm0EJiiiEE9_M_assignIiJiiEEEvOS_ILm0EJT_DpT0_EE
FN:334,_ZNSt11_Tuple_implILm2EJiEE7_M_headERS0_
FNDA:0,_ZNSt11_Tuple_implILm2EJiEE7_M_headERS0_
FN:339,_ZNSt11_Tuple_implILm2EJiEEC2Ev
FNDA:273,_ZNSt11_Tuple_implILm2EJiEEC2Ev
FN:348,_ZNSt11_Tuple_implILm2EJiEEC2IiEEOT_
FNDA:1,_ZNSt11_Tuple_implILm2EJiEEC2IiEEOT_
FN:348,_ZNSt11_Tuple_implILm2EJiEEC2IRiEEOT_
FNDA:28,_ZNSt11_Tuple_implILm2EJiEEC2IRiEEOT_
FN:419,_ZNSt11_Tuple_implILm2EJiEE9_M_assignIiEEvOS_ILm2EJT_EE
FNDA:29,_ZNSt11_Tuple_implILm2EJiEE9_M_assignIiEEvOS_ILm2EJT_EE
FN:561,_ZNSt5tupleIJiiiEEC2IvLb1EEEv
FNDA:273,_ZNSt5tupleIJiiiEEC2IvLb1EEEv
FN:626,_ZNSt5tupleIJiiiEEC2IJRiS2_S2_ELb1EEEDpOT_
FNDA:28,_ZNSt5tupleIJiiiEEC2IJRiS2_S2_ELb1EEEDpOT_
FN:626,_ZNSt5tupleIJiiiEEC2IJiiiELb1EEEDpOT_
FNDA:1,_ZNSt5tupleIJiiiEEC2IJiiiELb1EEEDpOT_
FN:827,_ZNSt5tupleIJiiiEEaSEOS0_
FNDA:29,_ZNSt5tupleIJiiiEEaSEOS0_
FN:1470,_ZSt10make_tupleIJRiS0_S0_EESt5tupleIJDpNSt17__decay_and_stripIT_E6__typeEEEDpOS3_
FNDA:28,_ZSt10make_tupleIJRiS0_S0_EESt5tupleIJDpNSt17__decay_and_stripIT_E6__typeEEEDpOS3_
FN:1470,_ZSt10make_tupleIJiiiEESt5tupleIJDpNSt17__decay_and_stripIT_E6__typeEEEDpOS2_
FNDA:1,_ZSt10make_tupleIJiiiEESt5tupleIJDpNSt17__decay_and_stripIT_E6__typeEEEDpOS2_
DA:122,273
DA:123,273
DA:122,273
DA:123,273
DA:122,273
DA:123,273
DA:132,28
DA:133,28
DA:132,1
DA:133,1
DA:132,28
DA:133,28
DA:132,1
DA:133,1
DA:132,28
DA:133,28
DA:132,1
DA:133,1
DA:160,0
DA:160,0
DA:160,0
DA:195,0
DA:195,0
DA:201,58
DA:201,58
DA:206,273
DA:207,273
DA:206,273
DA:207,273
DA:216,28
DA:218,28
DA:216,1
DA:218,1
DA:216,28
DA:218,28
DA:216,1
DA:218,1
DA:306,29
DA:308,29
DA:309,29
DA:310,58
DA:311,29
DA:312,29
DA:306,29
DA:308,29
DA:309,29
DA:310,58
DA:311,29
DA:312,29
DA:334,0
DA:339,273
DA:340,273
DA:348,28
DA:349,28
DA:348,1
DA:349,1
DA:419,29
DA:421,29
DA:422,29
DA:423,29
DA:561,273
DA:562,273
DA:626,28
DA:627,28
DA:626,1
DA:627,1
DA:827,29
DA:832,29
DA:833,29
DA:1470,28
DA:1474,28
DA:1470,1
DA:1474,1
end_of_record
SF:/home/shiv/demo/gtest/bowlinggame/app/include/FrameType.hpp
FN:12,_ZN9FrameTypeC2Ev
FNDA:273,_ZN9FrameTypeC2Ev
FN:21,_ZN9FrameTypeD0Ev
FNDA:0,_ZN9FrameTypeD0Ev
FN:21,_ZN9FrameTypeD2Ev
FNDA:273,_ZN9FrameTypeD2Ev
DA:12,273
DA:21,0
DA:21,273
end_of_record
SF:/usr/include/c++/9/ext/new_allocator.h
FN:102,_ZN9__gnu_cxx13new_allocatorIP9FrameTypeE8allocateEmPKv
FNDA:135,_ZN9__gnu_cxx13new_allocatorIP9FrameTypeE8allocateEmPKv
FN:119,_ZN9__gnu_cxx13new_allocatorIP9FrameTypeE10deallocateEPS2_m
FNDA:135,_ZN9__gnu_cxx13new_allocatorIP9FrameTypeE10deallocateEPS2_m
FN:132,_ZNK9__gnu_cxx13new_allocatorIP9FrameTypeE8max_sizeEv
FNDA:405,_ZNK9__gnu_cxx13new_allocatorIP9FrameTypeE8max_sizeEv
FN:144,_ZN9__gnu_cxx13new_allocatorIP9FrameTypeE9constructIS2_JP10TenthFrameEEEvPT_DpOT0_
FNDA:28,_ZN9__gnu_cxx13new_allocatorIP9FrameTypeE9constructIS2_JP10TenthFrameEEEvPT_DpOT0_
FN:144,_ZN9__gnu_cxx13new_allocatorIP9FrameTypeE9constructIS2_JP11NormalFrameEEEvPT_DpOT0_
FNDA:245,_ZN9__gnu_cxx13new_allocatorIP9FrameTypeE9constructIS2_JP11NormalFrameEEEvPT_DpOT0_
DA:102,135
DA:104,135
DA:105,0
DA:114,135
DA:119,135
DA:128,135
DA:132,405
DA:135,405
DA:144,28
DA:146,28
DA:144,245
DA:146,245
end_of_record
SF:/usr/include/c++/9/iostream
end_of_record
SF:/usr/include/c++/9/bits/stl_algobase.h
FN:198,_ZSt3minImERKT_S2_S2_
FNDA:649,_ZSt3minImERKT_S2_S2_
FN:222,_ZSt3maxImERKT_S2_S2_
FNDA:169,_ZSt3maxImERKT_S2_S2_
FN:280,_ZSt12__niter_baseIPP9FrameTypeET_S3_
FNDA:810,_ZSt12__niter_baseIPP9FrameTypeET_S3_
DA:198,649
DA:203,649
DA:204,2
DA:205,647
DA:222,169
DA:227,169
DA:228,42
DA:229,127
DA:280,810
DA:282,810
end_of_record
SF:/usr/include/c++/9/bits/alloc_traits.h
FN:442,_ZNSt16allocator_traitsISaIP9FrameTypeEE8allocateERS2_m
FNDA:135,_ZNSt16allocator_traitsISaIP9FrameTypeEE8allocateERS2_m
FN:468,_ZNSt16allocator_traitsISaIP9FrameTypeEE10deallocateERS2_PS1_m
FNDA:135,_ZNSt16allocator_traitsISaIP9FrameTypeEE10deallocateERS2_PS1_m
FN:481,_ZNSt16allocator_traitsISaIP9FrameTypeEE9constructIS1_JP10TenthFrameEEEvRS2_PT_DpOT0_
FNDA:28,_ZNSt16allocator_traitsISaIP9FrameTypeEE9constructIS1_JP10TenthFrameEEEvRS2_PT_DpOT0_
FN:481,_ZNSt16allocator_traitsISaIP9FrameTypeEE9constructIS1_JP11NormalFrameEEEvRS2_PT_DpOT0_
FNDA:245,_ZNSt16allocator_traitsISaIP9FrameTypeEE9constructIS1_JP11NormalFrameEEEvRS2_PT_DpOT0_
FN:504,_ZNSt16allocator_traitsISaIP9FrameTypeEE8max_sizeERKS2_
FNDA:270,_ZNSt16allocator_traitsISaIP9FrameTypeEE8max_sizeERKS2_
DA:442,135
DA:443,135
DA:468,135
DA:469,135
DA:481,28
DA:483,28
DA:481,245
DA:483,245
DA:504,270
DA:505,270
end_of_record
SF:/home/shiv/demo/gtest/bowlinggame/app/include/TenthFrame.hpp
FN:15,_ZN10TenthFrameC2Eiii
FNDA:28,_ZN10TenthFrameC2Eiii
FN:19,_ZN10TenthFrame12setFrameTrieEv
FNDA:28,_ZN10TenthFrame12setFrameTrieEv
FN:23,_ZN10TenthFrame14getNormalTriesEv
FNDA:1,_ZN10TenthFrame14getNormalTriesEv
FN:28,_ZN10TenthFrame13getTenthTriesEv
FNDA:22,_ZN10TenthFrame13getTenthTriesEv
DA:15,28
DA:17,28
DA:18,28
DA:19,28
DA:21,28
DA:22,28
DA:23,1
DA:25,1
DA:26,1
DA:28,22
DA:30,22
end_of_record
SF:/usr/include/c++/9/bits/stl_vector.h
FN:273,_ZNSt12_Vector_baseIP9FrameTypeSaIS1_EE19_M_get_Tp_allocatorEv
FNDA:329,_ZNSt12_Vector_baseIP9FrameTypeSaIS1_EE19_M_get_Tp_allocatorEv
FN:277,_ZNKSt12_Vector_baseIP9FrameTypeSaIS1_EE19_M_get_Tp_allocatorEv
FNDA:270,_ZNKSt12_Vector_baseIP9FrameTypeSaIS1_EE19_M_get_Tp_allocatorEv
FN:340,_ZNSt12_Vector_baseIP9FrameTypeSaIS1_EE11_M_allocateEm
FNDA:135,_ZNSt12_Vector_baseIP9FrameTypeSaIS1_EE11_M_allocateEm
FN:347,_ZNSt12_Vector_baseIP9FrameTypeSaIS1_EE13_M_deallocateEPS1_m
FNDA:165,_ZNSt12_Vector_baseIP9FrameTypeSaIS1_EE13_M_deallocateEPS1_m
FN:450,_ZNSt6vectorIP9FrameTypeSaIS1_EE14_S_do_relocateEPS1_S4_S4_RS2_St17integral_constantIbLb1EE
FNDA:270,_ZNSt6vectorIP9FrameTypeSaIS1_EE14_S_do_relocateEPS1_S4_S4_RS2_St17integral_constantIbLb1EE
FN:462,_ZNSt6vectorIP9FrameTypeSaIS1_EE11_S_relocateEPS1_S4_S4_RS2_
FNDA:270,_ZNSt6vectorIP9FrameTypeSaIS1_EE11_S_relocateEPS1_S4_S4_RS2_
FN:808,_ZNSt6vectorIP9FrameTypeSaIS1_EE5beginEv
FNDA:165,_ZNSt6vectorIP9FrameTypeSaIS1_EE5beginEv
FN:826,_ZNSt6vectorIP9FrameTypeSaIS1_EE3endEv
FNDA:438,_ZNSt6vectorIP9FrameTypeSaIS1_EE3endEv
FN:915,_ZNKSt6vectorIP9FrameTypeSaIS1_EE4sizeEv
FNDA:0,_ZNKSt6vectorIP9FrameTypeSaIS1_EE4sizeEv
FN:920,_ZNKSt6vectorIP9FrameTypeSaIS1_EE8max_sizeEv
FNDA:270,_ZNKSt6vectorIP9FrameTypeSaIS1_EE8max_sizeEv
FN:1140,_ZNSt6vectorIP9FrameTypeSaIS1_EE4backEv
FNDA:273,_ZNSt6vectorIP9FrameTypeSaIS1_EE4backEv
FN:1753,_ZNKSt6vectorIP9FrameTypeSaIS1_EE12_M_check_lenEmPKc
FNDA:135,_ZNKSt6vectorIP9FrameTypeSaIS1_EE12_M_check_lenEmPKc
FN:1773,_ZNSt6vectorIP9FrameTypeSaIS1_EE11_S_max_sizeERKS2_
FNDA:270,_ZNSt6vectorIP9FrameTypeSaIS1_EE11_S_max_sizeERKS2_
DA:273,329
DA:274,329
DA:277,270
DA:278,270
DA:340,135
DA:343,135
DA:347,165
DA:350,165
DA:351,135
DA:352,165
DA:450,270
DA:453,270
DA:462,270
DA:466,270
DA:808,165
DA:809,165
DA:826,438
DA:827,438
DA:915,0
DA:916,0
DA:920,270
DA:921,270
DA:1140,273
DA:1143,273
DA:1753,135
DA:1755,135
DA:1756,0
DA:1758,135
DA:1759,135
DA:1773,270
DA:1778,270
DA:1780,270
DA:1781,270
end_of_record
SF:/home/shiv/demo/gtest/bowlinggame/app/include/NormalFrame.hpp
FN:14,_ZN11NormalFrameC2Eii
FNDA:245,_ZN11NormalFrameC2Eii
FN:18,_ZN11NormalFrame12setFrameTrieEv
FNDA:245,_ZN11NormalFrame12setFrameTrieEv
FN:22,_ZN11NormalFrame14getNormalTriesEv
FNDA:149,_ZN11NormalFrame14getNormalTriesEv
FN:26,_ZN11NormalFrame13getTenthTriesEv
FNDA:1,_ZN11NormalFrame13getTenthTriesEv
DA:14,245
DA:16,245
DA:17,245
DA:18,245
DA:20,245
DA:21,245
DA:22,149
DA:24,149
DA:26,1
DA:28,1
DA:29,1
end_of_record
SF:/usr/include/c++/9/bits/basic_string.h
FN:190,_ZNKSt7__cxx1112basic_stringIcSt11char_traitsIcESaIcEE7_M_dataEv
FNDA:0,_ZNKSt7__cxx1112basic_stringIcSt11char_traitsIcESaIcEE7_M_dataEv
FN:405,_ZNSt7__cxx1112basic_stringIcSt11char_traitsIcESaIcEE10_S_compareEmm
FNDA:277,_ZNSt7__cxx1112basic_stringIcSt11char_traitsIcESaIcEE10_S_compareEmm
FN:934,_ZNKSt7__cxx1112basic_stringIcSt11char_traitsIcESaIcEE4sizeEv
FNDA:1073,_ZNKSt7__cxx1112basic_stringIcSt11char_traitsIcESaIcEE4sizeEv
FN:6178,_ZSteqIcSt11char_traitsIcESaIcEEbRKNSt7__cxx1112basic_stringIT_T0_T1_EEPKS5_
FNDA:307,_ZSteqIcSt11char_traitsIcESaIcEEbRKNSt7__cxx1112basic_stringIT_T0_T1_EEPKS5_
DA:190,0
DA:191,0
DA:405,277
DA:407,277
DA:409,277
DA:410,0
DA:411,277
DA:412,0
DA:414,277
DA:934,1073
DA:935,1073
DA:6178,307
DA:6180,307
end_of_record
SF:/home/shiv/demo/gtest/bowlinggame/app/include/BowlingGame.hpp
FN:32,_ZN11BowlingGame8getframeEv
FNDA:291,_ZN11BowlingGame8getframeEv
DA:32,291
DA:34,291
end_of_record
SF:/usr/include/c++/9/bits/char_traits.h
FN:100,_ZN9__gnu_cxx11char_traitsIcE2eqERKcS3_
FNDA:0,_ZN9__gnu_cxx11char_traitsIcE2eqERKcS3_
FN:161,_ZN9__gnu_cxx11char_traitsIcE6lengthEPKc
FNDA:0,_ZN9__gnu_cxx11char_traitsIcE6lengthEPKc
FN:307,_ZNSt11char_traitsIcE2ltERKcS2_
FNDA:0,_ZNSt11char_traitsIcE2ltERKcS2_
FN:315,_ZNSt11char_traitsIcE7compareEPKcS2_m
FNDA:307,_ZNSt11char_traitsIcE7compareEPKcS2_m
FN:336,_ZNSt11char_traitsIcE6lengthEPKc
FNDA:0,_ZNSt11char_traitsIcE6lengthEPKc
DA:100,0
DA:101,0
DA:161,0
DA:164,0
DA:165,0
DA:166,0
DA:167,0
DA:236,0
DA:307,0
DA:310,0
DA:311,0
DA:315,307
DA:317,307
DA:318,4
DA:320,303
DA:322,303
DA:324,0
DA:325,0
DA:326,0
DA:327,0
DA:328,0
DA:329,0
DA:332,303
DA:336,0
DA:339,0
DA:340,0
DA:342,0
end_of_record
SF:/usr/include/c++/9/bits/vector.tcc
FN:109,_ZNSt6vectorIP9FrameTypeSaIS1_EE12emplace_backIJP10TenthFrameEEERS1_DpOT_
FNDA:28,_ZNSt6vectorIP9FrameTypeSaIS1_EE12emplace_backIJP10TenthFrameEEERS1_DpOT_
FN:109,_ZNSt6vectorIP9FrameTypeSaIS1_EE12emplace_backIJP11NormalFrameEEERS1_DpOT_
FNDA:245,_ZNSt6vectorIP9FrameTypeSaIS1_EE12emplace_backIJP11NormalFrameEEERS1_DpOT_
FN:426,_ZNSt6vectorIP9FrameTypeSaIS1_EE17_M_realloc_insertIJP10TenthFrameEEEvN9__gnu_cxx17__normal_iteratorIPS1_S3_EEDpOT_
FNDA:2,_ZNSt6vectorIP9FrameTypeSaIS1_EE17_M_realloc_insertIJP10TenthFrameEEEvN9__gnu_cxx17__normal_iteratorIPS1_S3_EEDpOT_
FN:426,_ZNSt6vectorIP9FrameTypeSaIS1_EE17_M_realloc_insertIJP11NormalFrameEEEvN9__gnu_cxx17__normal_iteratorIPS1_S3_EEDpOT_
FNDA:133,_ZNSt6vectorIP9FrameTypeSaIS1_EE17_M_realloc_insertIJP11NormalFrameEEEvN9__gnu_cxx17__normal_iteratorIPS1_S3_EEDpOT_
DA:109,28
DA:112,28
DA:115,26
DA:117,26
DA:121,2
DA:123,28
DA:109,245
DA:112,245
DA:115,112
DA:117,112
DA:121,133
DA:123,245
DA:426,2
DA:435,2
DA:437,2
DA:438,2
DA:439,2
DA:440,2
DA:441,2
DA:449,2
DA:450,2
DA:456,2
DA:461,2
DA:462,2
DA:464,2
DA:466,2
DA:467,2
DA:500,2
DA:501,2
DA:502,2
DA:503,2
DA:504,2
DA:505,2
DA:426,133
DA:435,133
DA:437,133
DA:438,133
DA:439,133
DA:440,133
DA:441,133
DA:449,133
DA:450,133
DA:456,133
DA:461,133
DA:462,133
DA:464,133
DA:466,133
DA:467,133
DA:500,133
DA:501,133
DA:502,133
DA:503,133
DA:504,133
DA:505,133
end_of_record
SF:/usr/include/c++/9/new
FN:173,_ZnwmPv
FNDA:358,_ZnwmPv
DA:173,358
DA:174,358
end_of_record
